(lp0
S'ERROR 2017-08-08 23:58:29,627 [[commerce-entitlement-2.1.0].ConnectorWithoutMuleSession.receiver.3123] After calling CAS Get EntitledOfferings Response Payload :: Errors: <?xml version="1.0" encoding="UTF-8" standalone="yes"?><Errors xmlns="http://schema.intuit.com/platform/common/error/v2"><error><code>ENT-202106</code><type>CLIENT</type><message>CustomerAccountNumber provided is Invalid</message><detail>CustomerAccountNumber provided is Invalid</detail><moreInfo>CustomerAccountNumber provided is Invalid</moreInfo></error></Errors>'
p1
aS'ERROR 2017-08-08 23:27:02,574 [[commerce-entitlement-2.1.0].ConnectorWithoutMuleSession.receiver.3140] After calling CAS Get EntitledOfferings Response Payload :: Errors: <?xml version="1.0" encoding="UTF-8" standalone="yes"?><Errors xmlns="http://schema.intuit.com/platform/common/error/v2"><error><code>ENT-202106</code><type>CLIENT</type><message>CustomerAccountNumber provided is Invalid</message><detail>CustomerAccountNumber provided is Invalid</detail><moreInfo>CustomerAccountNumber provided is Invalid</moreInfo></error></Errors>'
p2
aS'ERROR 2017-08-08 23:18:40,939 [[commerce-entitlement-2.1.0].ConnectorWithoutMuleSession.receiver.3183] After calling CAS Get EntitledOfferings Response Payload :: Errors: <?xml version="1.0" encoding="UTF-8" standalone="yes"?><Errors xmlns="http://schema.intuit.com/platform/common/error/v2"><error><code>ENT-202106</code><type>CLIENT</type><message>CustomerAccountNumber provided is Invalid</message><detail>CustomerAccountNumber provided is Invalid</detail><moreInfo>CustomerAccountNumber provided is Invalid</moreInfo></error></Errors>'
p3
aS'ERROR 2017-08-08 23:07:19,658 [[commerce-entitlement-2.1.0].ConnectorWithoutMuleSession.receiver.3133] After calling CAS Get EntitledOfferings Response Payload :: Errors: <?xml version="1.0" encoding="UTF-8" standalone="yes"?><Errors xmlns="http://schema.intuit.com/platform/common/error/v2"><error><code>ENT-202106</code><type>CLIENT</type><message>CustomerAccountNumber provided is Invalid</message><detail>CustomerAccountNumber provided is Invalid</detail><moreInfo>CustomerAccountNumber provided is Invalid</moreInfo></error></Errors>'
p4
a.