(lp0
S'ERROR 2017-08-08 23:58:29,627 [[commerce-entitlement-2.1.0].ConnectorWithoutMuleSession.receiver.3123] After calling CAS Get EntitledOfferings Response Payload :: Errors: <?xml version="1.0" encoding="UTF-8" standalone="yes"?><Errors xmlns="http://schema.intuit.com/platform/common/error/v2"><error><code>ENT-202106</code><type>CLIENT</type><message>CustomerAccountNumber provided is Invalid</message><detail>CustomerAccountNumber provided is Invalid</detail><moreInfo>CustomerAccountNumber provided is Invalid</moreInfo></error></Errors>'
p1
aS'ERROR 2017-08-08 23:27:02,574 [[commerce-entitlement-2.1.0].ConnectorWithoutMuleSession.receiver.3140] After calling CAS Get EntitledOfferings Response Payload :: Errors: <?xml version="1.0" encoding="UTF-8" standalone="yes"?><Errors xmlns="http://schema.intuit.com/platform/common/error/v2"><error><code>ENT-202106</code><type>CLIENT</type><message>CustomerAccountNumber provided is Invalid</message><detail>CustomerAccountNumber provided is Invalid</detail><moreInfo>CustomerAccountNumber provided is Invalid</moreInfo></error></Errors>'
p2
aS'ERROR 2017-08-08 23:18:40,939 [[commerce-entitlement-2.1.0].ConnectorWithoutMuleSession.receiver.3183] After calling CAS Get EntitledOfferings Response Payload :: Errors: <?xml version="1.0" encoding="UTF-8" standalone="yes"?><Errors xmlns="http://schema.intuit.com/platform/common/error/v2"><error><code>ENT-202106</code><type>CLIENT</type><message>CustomerAccountNumber provided is Invalid</message><detail>CustomerAccountNumber provided is Invalid</detail><moreInfo>CustomerAccountNumber provided is Invalid</moreInfo></error></Errors>'
p3
aS'ERROR 2017-08-08 23:07:19,658 [[commerce-entitlement-2.1.0].ConnectorWithoutMuleSession.receiver.3133] After calling CAS Get EntitledOfferings Response Payload :: Errors: <?xml version="1.0" encoding="UTF-8" standalone="yes"?><Errors xmlns="http://schema.intuit.com/platform/common/error/v2"><error><code>ENT-202106</code><type>CLIENT</type><message>CustomerAccountNumber provided is Invalid</message><detail>CustomerAccountNumber provided is Invalid</detail><moreInfo>CustomerAccountNumber provided is Invalid</moreInfo></error></Errors>'
p4
aS'ERROR 2017-08-08 21:08:30,970 [[commerce-entitlement-2.1.0].ConnectorWithoutMuleSession.receiver.3133] After calling CAS Get EntitledOfferings Response Payload :: Errors: <?xml version="1.0" encoding="UTF-8" standalone="yes"?><Errors xmlns="http://schema.intuit.com/platform/common/error/v2"><error><code>ENT-202106</code><type>CLIENT</type><message>CustomerAccountNumber provided is Invalid</message><detail>CustomerAccountNumber provided is Invalid</detail><moreInfo>CustomerAccountNumber provided is Invalid</moreInfo></error></Errors>'
p5
aS'ERROR 2017-08-08 20:56:47,597 [[commerce-entitlement-2.1.0].ConnectorWithoutMuleSession.receiver.3110] After calling CAS Get EntitledOfferings Response Payload :: Errors: <?xml version="1.0" encoding="UTF-8" standalone="yes"?><Errors xmlns="http://schema.intuit.com/platform/common/error/v2"><error><code>ENT-202106</code><type>CLIENT</type><message>CustomerAccountNumber provided is Invalid</message><detail>CustomerAccountNumber provided is Invalid</detail><moreInfo>CustomerAccountNumber provided is Invalid</moreInfo></error></Errors>'
p6
aS'ERROR 2017-08-08 20:50:44,899 [[commerce-entitlement-2.1.0].ConnectorWithoutMuleSession.receiver.3073] After calling CAS Get EntitledOfferings Response Payload :: Errors: <?xml version="1.0" encoding="UTF-8" standalone="yes"?><Errors xmlns="http://schema.intuit.com/platform/common/error/v2"><error><code>ENT-202106</code><type>CLIENT</type><message>CustomerAccountNumber provided is Invalid</message><detail>CustomerAccountNumber provided is Invalid</detail><moreInfo>CustomerAccountNumber provided is Invalid</moreInfo></error></Errors>'
p7
aS'ERROR 2017-08-08 20:49:35,536 [[commerce-entitlement-2.1.0].ConnectorWithoutMuleSession.receiver.3073] After calling CAS Get EntitledOfferings Response Payload :: Errors: <?xml version="1.0" encoding="UTF-8" standalone="yes"?><Errors xmlns="http://schema.intuit.com/platform/common/error/v2"><error><code>ENT-202106</code><type>CLIENT</type><message>CustomerAccountNumber provided is Invalid</message><detail>CustomerAccountNumber provided is Invalid</detail><moreInfo>CustomerAccountNumber provided is Invalid</moreInfo></error></Errors>'
p8
aS'ERROR 2017-08-08 20:41:16,135 [[commerce-entitlement-2.1.0].ConnectorWithoutMuleSession.receiver.3104] After calling CAS Get EntitledOfferings Response Payload :: Errors: <?xml version="1.0" encoding="UTF-8" standalone="yes"?><Errors xmlns="http://schema.intuit.com/platform/common/error/v2"><error><code>ENT-202106</code><type>CLIENT</type><message>CustomerAccountNumber provided is Invalid</message><detail>CustomerAccountNumber provided is Invalid</detail><moreInfo>CustomerAccountNumber provided is Invalid</moreInfo></error></Errors>'
p9
aS'ERROR 2017-08-08 20:34:57,874 [[commerce-entitlement-2.1.0].ConnectorWithoutMuleSession.receiver.3120] After calling CAS Get EntitledOfferings Response Payload :: Errors: <?xml version="1.0" encoding="UTF-8" standalone="yes"?><Errors xmlns="http://schema.intuit.com/platform/common/error/v2"><error><code>ENT-202106</code><type>CLIENT</type><message>CustomerAccountNumber provided is Invalid</message><detail>CustomerAccountNumber provided is Invalid</detail><moreInfo>CustomerAccountNumber provided is Invalid</moreInfo></error></Errors>'
p10
aS'ERROR 2017-08-08 20:22:21,726 [[commerce-entitlement-2.1.0].ConnectorWithoutMuleSession.receiver.3097] After calling CAS Get EntitledOfferings Response Payload :: Errors: <?xml version="1.0" encoding="UTF-8" standalone="yes"?><Errors xmlns="http://schema.intuit.com/platform/common/error/v2"><error><code>ENT-202106</code><type>CLIENT</type><message>CustomerAccountNumber provided is Invalid</message><detail>CustomerAccountNumber provided is Invalid</detail><moreInfo>CustomerAccountNumber provided is Invalid</moreInfo></error></Errors>'
p11
aS'ERROR 2017-08-08 20:16:36,872 [[commerce-entitlement-2.1.0].ConnectorWithoutMuleSession.receiver.3033] After calling CAS Get EntitledOfferings Response Payload :: Errors: <?xml version="1.0" encoding="UTF-8" standalone="yes"?><Errors xmlns="http://schema.intuit.com/platform/common/error/v2"><error><code>ENT-202106</code><type>CLIENT</type><message>CustomerAccountNumber provided is Invalid</message><detail>CustomerAccountNumber provided is Invalid</detail><moreInfo>CustomerAccountNumber provided is Invalid</moreInfo></error></Errors>'
p12
aS'ERROR 2017-08-08 19:59:50,186 [[commerce-entitlement-2.1.0].ConnectorWithoutMuleSession.receiver.3092] After calling CAS Get EntitledOfferings Response Payload :: Errors: <?xml version="1.0" encoding="UTF-8" standalone="yes"?><Errors xmlns="http://schema.intuit.com/platform/common/error/v2"><error><code>ENT-202106</code><type>CLIENT</type><message>CustomerAccountNumber provided is Invalid</message><detail>CustomerAccountNumber provided is Invalid</detail><moreInfo>CustomerAccountNumber provided is Invalid</moreInfo></error></Errors>'
p13
aS'ERROR 2017-08-08 19:59:02,362 [[commerce-entitlement-2.1.0].ConnectorWithoutMuleSession.receiver.3025] After calling CAS Get EntitledOfferings Response Payload :: Errors: <?xml version="1.0" encoding="UTF-8" standalone="yes"?><Errors xmlns="http://schema.intuit.com/platform/common/error/v2"><error><code>ENT-202106</code><type>CLIENT</type><message>CustomerAccountNumber provided is Invalid</message><detail>CustomerAccountNumber provided is Invalid</detail><moreInfo>CustomerAccountNumber provided is Invalid</moreInfo></error></Errors>'
p14
aS'ERROR 2017-08-08 19:45:23,116 [[commerce-entitlement-2.1.0].ConnectorWithoutMuleSession.receiver.3085] After calling CAS Get EntitledOfferings Response Payload :: Errors: <?xml version="1.0" encoding="UTF-8" standalone="yes"?><Errors xmlns="http://schema.intuit.com/platform/common/error/v2"><error><code>ENT-202106</code><type>CLIENT</type><message>CustomerAccountNumber provided is Invalid</message><detail>CustomerAccountNumber provided is Invalid</detail><moreInfo>CustomerAccountNumber provided is Invalid</moreInfo></error></Errors>'
p15
aS'ERROR 2017-08-08 19:36:38,490 [[commerce-entitlement-2.1.0].ConnectorWithoutMuleSession.receiver.3043] After calling CAS Get EntitledOfferings Response Payload :: Errors: <?xml version="1.0" encoding="UTF-8" standalone="yes"?><Errors xmlns="http://schema.intuit.com/platform/common/error/v2"><error><code>ENT-202106</code><type>CLIENT</type><message>CustomerAccountNumber provided is Invalid</message><detail>CustomerAccountNumber provided is Invalid</detail><moreInfo>CustomerAccountNumber provided is Invalid</moreInfo></error></Errors>'
p16
aS'ERROR 2017-08-08 19:32:00,589 [[commerce-entitlement-2.1.0].ConnectorWithoutMuleSession.receiver.3016] After calling CAS Get EntitledOfferings Response Payload :: Errors: <?xml version="1.0" encoding="UTF-8" standalone="yes"?><Errors xmlns="http://schema.intuit.com/platform/common/error/v2"><error><code>ENT-202106</code><type>CLIENT</type><message>CustomerAccountNumber provided is Invalid</message><detail>CustomerAccountNumber provided is Invalid</detail><moreInfo>CustomerAccountNumber provided is Invalid</moreInfo></error></Errors>'
p17
aS'ERROR 2017-08-08 19:31:50,199 [[commerce-entitlement-2.1.0].ConnectorWithoutMuleSession.receiver.3016] After calling CAS Get EntitledOfferings Response Payload :: Errors: <?xml version="1.0" encoding="UTF-8" standalone="yes"?><Errors xmlns="http://schema.intuit.com/platform/common/error/v2"><error><code>ENT-202106</code><type>CLIENT</type><message>CustomerAccountNumber provided is Invalid</message><detail>CustomerAccountNumber provided is Invalid</detail><moreInfo>CustomerAccountNumber provided is Invalid</moreInfo></error></Errors>'
p18
aS'ERROR 2017-08-08 19:26:59,872 [[commerce-entitlement-2.1.0].ConnectorWithoutMuleSession.receiver.3077] After calling CAS Get EntitledOfferings Response Payload :: Errors: <?xml version="1.0" encoding="UTF-8" standalone="yes"?><Errors xmlns="http://schema.intuit.com/platform/common/error/v2"><error><code>ENT-202106</code><type>CLIENT</type><message>CustomerAccountNumber provided is Invalid</message><detail>CustomerAccountNumber provided is Invalid</detail><moreInfo>CustomerAccountNumber provided is Invalid</moreInfo></error></Errors>'
p19
aS'ERROR 2017-08-08 19:26:59,298 [[commerce-entitlement-2.1.0].ConnectorWithoutMuleSession.receiver.3089] After calling CAS Get EntitledOfferings Response Payload :: Errors: <?xml version="1.0" encoding="UTF-8" standalone="yes"?><Errors xmlns="http://schema.intuit.com/platform/common/error/v2"><error><code>ENT-202106</code><type>CLIENT</type><message>CustomerAccountNumber provided is Invalid</message><detail>CustomerAccountNumber provided is Invalid</detail><moreInfo>CustomerAccountNumber provided is Invalid</moreInfo></error></Errors>'
p20
a.