(dp0
I0
(lp1
Vmule
p2
aVloggermessageprocessor
p3
aVprocessor
p4
aVdefault
p5
aVapi
p6
aVconnector
p7
aVenterpriseaccount
p8
aVhttp
p9
aVreceiver
p10
aVaccountservice
p11
asI1
(lp12
Vgst
p13
aVaddress
p14
aVglobalsalestax
p15
aVnull
p16
aVstatus
p17
aVfailure
p18
aVparameterizedmessagefactory
p19
aVlog4j
p20
aV59e02f1e
p21
aV7a7f3a1f
p22
asI2
(lp23
Vcustomeraccountnumber
p24
aVprovided
p25
aVinvalid
p26
aVerrors
p27
aVmoreinfo
p28
aVtype
p29
aV202106
p30
aVent
p31
aVentitledofferings
p32
aVcalling
p33
asI3
(lp34
Vset
p35
aVfalloutord0_
p36
aVfalloutord2_
p37
aVtransaction_id
p38
aVfalloutacc0_
p39
aVfalloutadd0_
p40
aVfalloutoff0_
p41
aVcreate_date
p42
aVupdate_date
p43
aVfallouttax0_
p44
asI4
(lp45
Vrps
p46
aVrestrictions
p47
aVcontactinformation
p48
aVen_us
p49
aVaddresstype
p50
aVfe80
p51
aVcustommap
p52
aVwebserver
p53
aVebcsphase
p54
aVintuit_ebcs_assetalias
p55
asI5
(lp56
Vjava
p57
ag2
aVexecute
p58
aVexecution
p59
aVblockingprocessorexecutor
p60
ag4
aVexceptiontomessagingexceptionexecutioninterceptor
p61
aVnet
p62
aVmessageprocessorexecutiontemplate
p63
aVchain
p64
asI6
(lp65
Ventitlement
p66
aVentitledoffering
p67
aVentitlementofferingrestransformer
p68
aVreceived
p69
aVtransformer
p70
aVconnectorwithoutmulesession
p71
aVcas
p72
ag10
aV06
p73
aV12
p74
asI7
(lp75
g13
ag14
ag15
ag16
ag17
ag18
ag19
ag20
aV409f64ac
p76
aV474a2ed2
p77
asI8
(lp78
Vthrowing
p79
aVbillingprofilesserviceutil
p80
aVauthorization
p81
aVbillingprofile
p82
aVutil
p83
aVbillingprofiles
p84
aVclient_error
p85
aVpaymant
p86
aVjettyconnector
p87
aVfailed
p88
asI9
(lp89
Vauth
p90
aVpayment
p91
ag88
aVorder
p92
ag16
ag27
aVcdata
p93
aVcommon
p94
ag29
aVschema
p95
asI10
(lp96
Vjms
p97
ag57
aVtransport
p98
aVlang
p99
aVinterruptedexception
p100
aVjmsexception
p101
aVjavax
p102
aVactivemq
p103
ag2
aVid
p104
asI11
(lp105
V3b55c30f
p106
aV2a68bccf
p107
aV862
p108
aVerrorresponsetransformer
p109
aVtransformers
p110
aV33
p111
ag20
ag19
aV16
p112
ag74
asI12
(lp113
Vpayauth
p114
ag57
aVcomponent
p115
aVexception
p116
ag2
aVwebs
p117
aVgroovy
p118
aVscriptcomponent
p119
aVdesc
p120
aVpaymentauthorizationresponsetransformer
p121
asI13
(lp122
g14
ag13
ag15
ag16
ag17
ag18
ag20
ag19
aV7a0e6015
p123
aV6dde0fdd
p124
asI14
(lp125
Vaccount
p126
aVunauthorizederrorunauthorized
p127
aVrequest
p128
aVgetaccountsebpi
p129
aVaccountserviceimpl
p130
ag116
ag8
ag5
ag7
ag9
asI15
(lp131
g109
ag110
ag19
ag20
ag94
ag2
aVformatting
p132
aVcreated
p133
aVlog
p134
aVlogger
p135
asI16
(lp136
Vdenied
p137
aVticket
p138
ag70
aVabstractmessagetransformer
p139
ag2
aVresponsecode
p140
aVresponsemessage
p141
aVverification
p142
aVinvalid_iam_ticket
p143
aV000
p144
asI17
(lp145
g13
ag14
ag15
ag16
ag17
ag18
ag20
ag19
aV7fe1fc10
p146
aV2b353be7
p147
asI18
(lp148
Vcurrency
p149
aV00
p150
aVusd
p151
aVns2
p152
aVv1
p153
aVpostalcode
p154
aV100
p155
aVcustomer
p156
aVxmlns
p157
aVcountry
p158
asI19
(lp159
g14
ag13
aV91
p160
ag15
ag16
aV82
p161
ag17
ag18
ag20
ag19
as.