(dp0
I0
(lp1
Vcustomeraccountnumber
p2
aVprovided
p3
aVinvalid
p4
aVerrors
p5
aVmoreinfo
p6
aVtype
p7
aV202106
p8
aVent
p9
aVentitledofferings
p10
aVcalling
p11
asI1
(lp12
Vaddress
p13
aVgst
p14
aVglobalsalestax
p15
aVnull
p16
aV85
p17
aV93
p18
aVstatus
p19
aVfailure
p20
aVparameterizedmessagefactory
p21
aVlog4j
p22
asI2
(lp23
Vset
p24
aVfalloutord0_
p25
aVfalloutord2_
p26
aVcharacter
p27
aVidle
p28
aVbadmessage
p29
aVhttpparser
p30
aVhttpchanneloverhttp
p31
aVjetty
p32
aVeclipse
p33
asI3
(lp34
g13
ag14
ag15
ag16
ag19
ag20
ag21
ag22
aV7a7f3a1f
p35
aV59e02f1e
p36
asI4
(lp37
Vaccount
p38
aVunauthorizederrorunauthorized
p39
aVrequest
p40
aVgetaccountsebpi
p41
aVaccountserviceimpl
p42
aVexception
p43
aVenterpriseaccount
p44
aVdefault
p45
aVconnector
p46
aVhttp
p47
asI5
(lp48
Verrorresponsetransformer
p49
aVtransformers
p50
ag21
ag22
aVcommon
p51
aVmule
p52
aVcreated
p53
aVformatting
p54
aVlog
p55
aVlogger
p56
asI6
(lp57
Vjava
p58
aVcomponent
p59
aVgroovy
p60
aVscriptcomponent
p61
aVcodehaus
p62
aVpayauth
p63
aVreflect
p64
ag43
aVnativeconstructoraccessorimpl
p65
aVcsg
p66
asI7
(lp67
Vbillingprofiles
p68
aVjettyconnector
p69
aVbillingprofilesserviceutil
p70
aVthrowing
p71
aVauthorization
p72
aVbillingprofile
p73
aVutil
p74
aVpaymant
p75
aVclient_error
p76
ag63
asI8
(lp77
g52
aVloggermessageprocessor
p78
aVprocessor
p79
aVapi
p80
ag45
ag46
ag44
ag47
aVflow
p81
aVreceiver
p82
asI9
(lp83
Vsbl
p84
aVintegration
p85
aVconsumer
p86
aVws
p87
ag59
aVrecord
p88
aVmodule
p89
aVcontact
p90
aVabstractrequestresponsemessageprocessor
p91
aVeai
p92
asI10
(lp93
g13
aVstate
p94
aVcountry
p95
ag6
aVcity
p96
ag5
ag47
ag7
aVexisting
p97
aV203210
p98
asI11
(lp99
g13
ag14
ag15
ag16
ag19
ag20
ag21
ag22
aV6dde0fdd
p100
aV7a0e6015
p101
asI12
(lp102
g13
ag14
ag15
ag16
ag19
ag20
ag21
ag22
aV20
p103
aVerrmoreinfo
p104
asI13
(lp105
Ventitlement
p106
aVentitledoffering
p107
aVentitlementofferingrestransformer
p108
aVreceived
p109
aVtransformer
p110
aVconnectorwithoutmulesession
p111
aVcas
p112
ag82
aV06
p113
aV16
p114
asI14
(lp115
Vrps
p116
aVrestrictions
p117
aVsupplies
p118
aVebcsphase
p119
aVcustommap
p120
aVintuit_ebcs_assetalias
p121
aVaddresstype
p122
aVwebserver
p123
aVen_us
p124
aVfe80
p125
asI15
(lp126
g13
ag14
ag15
ag16
ag19
ag20
ag22
ag21
aV7fe1fc10
p127
aV2b353be7
p128
asI16
(lp129
Vdenied
p130
aVauth
p131
aVticket
p132
aVpayment
p133
aVorder
p134
ag7
ag5
aVfailed
p135
aVresponsemessage
p136
aVresponsecode
p137
asI17
(lp138
g13
ag14
aV21
p139
ag15
ag16
ag19
ag20
ag22
ag21
aVgstjsontransformer
p140
asI18
(lp141
g58
ag52
aVexecute
p142
aVexecution
p143
aVblockingprocessorexecutor
p144
ag43
aVnet
p145
ag79
aVphase
p146
aVexceptiontomessagingexceptionexecutioninterceptor
p147
asI19
(lp148
Vresubscribe
p149
ag80
aVpub
p150
aVsubscription
p151
aVwebs
p152
aVcybersource
p153
aVcredit
p154
aVhttp_listener_configuration
p155
aVdata
p156
aVworker
p157
as.