(lp0
S'2017-08-07 00:00:00-07:00'
p1
aS'2017-08-07 00:30:00-07:00'
p2
aS'2017-08-07 01:00:00-07:00'
p3
aS'2017-08-07 01:30:00-07:00'
p4
aS'2017-08-07 02:00:00-07:00'
p5
aS'2017-08-07 02:30:00-07:00'
p6
aS'2017-08-07 03:00:00-07:00'
p7
aS'2017-08-07 03:30:00-07:00'
p8
aS'2017-08-07 04:00:00-07:00'
p9
aS'2017-08-07 04:30:00-07:00'
p10
aS'2017-08-07 05:00:00-07:00'
p11
aS'2017-08-07 05:30:00-07:00'
p12
aS'2017-08-07 06:00:00-07:00'
p13
aS'2017-08-07 06:30:00-07:00'
p14
aS'2017-08-07 07:00:00-07:00'
p15
aS'2017-08-07 07:30:00-07:00'
p16
aS'2017-08-07 08:00:00-07:00'
p17
aS'2017-08-07 08:30:00-07:00'
p18
aS'2017-08-07 09:00:00-07:00'
p19
aS'2017-08-07 09:30:00-07:00'
p20
aS'2017-08-07 10:00:00-07:00'
p21
aS'2017-08-07 10:30:00-07:00'
p22
aS'2017-08-07 11:00:00-07:00'
p23
aS'2017-08-07 11:30:00-07:00'
p24
aS'2017-08-07 12:00:00-07:00'
p25
aS'2017-08-07 12:30:00-07:00'
p26
aS'2017-08-07 13:00:00-07:00'
p27
aS'2017-08-07 13:30:00-07:00'
p28
aS'2017-08-07 14:00:00-07:00'
p29
aS'2017-08-07 14:30:00-07:00'
p30
aS'2017-08-07 15:00:00-07:00'
p31
aS'2017-08-07 15:30:00-07:00'
p32
aS'2017-08-07 16:00:00-07:00'
p33
aS'2017-08-07 16:30:00-07:00'
p34
aS'2017-08-07 17:00:00-07:00'
p35
aS'2017-08-07 17:30:00-07:00'
p36
aS'2017-08-07 18:00:00-07:00'
p37
aS'2017-08-07 18:30:00-07:00'
p38
aS'2017-08-07 19:00:00-07:00'
p39
aS'2017-08-07 19:30:00-07:00'
p40
aS'2017-08-07 20:00:00-07:00'
p41
aS'2017-08-07 20:30:00-07:00'
p42
aS'2017-08-07 21:00:00-07:00'
p43
aS'2017-08-07 21:30:00-07:00'
p44
aS'2017-08-07 22:00:00-07:00'
p45
aS'2017-08-07 22:30:00-07:00'
p46
aS'2017-08-07 23:00:00-07:00'
p47
aS'2017-08-07 23:30:00-07:00'
p48
aS'2017-08-08 00:00:00-07:00'
p49
aS'2017-08-08 00:30:00-07:00'
p50
aS'2017-08-08 01:00:00-07:00'
p51
aS'2017-08-08 01:30:00-07:00'
p52
aS'2017-08-08 02:00:00-07:00'
p53
aS'2017-08-08 02:30:00-07:00'
p54
aS'2017-08-08 03:00:00-07:00'
p55
aS'2017-08-08 03:30:00-07:00'
p56
aS'2017-08-08 04:00:00-07:00'
p57
aS'2017-08-08 04:30:00-07:00'
p58
aS'2017-08-08 05:00:00-07:00'
p59
aS'2017-08-08 05:30:00-07:00'
p60
aS'2017-08-08 06:00:00-07:00'
p61
aS'2017-08-08 06:30:00-07:00'
p62
aS'2017-08-08 07:00:00-07:00'
p63
aS'2017-08-08 07:30:00-07:00'
p64
aS'2017-08-08 08:00:00-07:00'
p65
aS'2017-08-08 08:30:00-07:00'
p66
aS'2017-08-08 09:00:00-07:00'
p67
aS'2017-08-08 09:30:00-07:00'
p68
aS'2017-08-08 10:00:00-07:00'
p69
aS'2017-08-08 10:30:00-07:00'
p70
aS'2017-08-08 11:00:00-07:00'
p71
aS'2017-08-08 11:30:00-07:00'
p72
aS'2017-08-08 12:00:00-07:00'
p73
aS'2017-08-08 12:30:00-07:00'
p74
aS'2017-08-08 13:00:00-07:00'
p75
aS'2017-08-08 13:30:00-07:00'
p76
aS'2017-08-08 14:00:00-07:00'
p77
aS'2017-08-08 14:30:00-07:00'
p78
aS'2017-08-08 15:00:00-07:00'
p79
aS'2017-08-08 15:30:00-07:00'
p80
aS'2017-08-08 16:00:00-07:00'
p81
aS'2017-08-08 16:30:00-07:00'
p82
aS'2017-08-08 17:00:00-07:00'
p83
aS'2017-08-08 17:30:00-07:00'
p84
aS'2017-08-08 18:00:00-07:00'
p85
aS'2017-08-08 18:30:00-07:00'
p86
aS'2017-08-08 19:00:00-07:00'
p87
aS'2017-08-08 19:30:00-07:00'
p88
aS'2017-08-08 20:00:00-07:00'
p89
aS'2017-08-08 20:30:00-07:00'
p90
aS'2017-08-08 21:00:00-07:00'
p91
aS'2017-08-08 21:30:00-07:00'
p92
aS'2017-08-08 22:00:00-07:00'
p93
aS'2017-08-08 22:30:00-07:00'
p94
aS'2017-08-08 23:00:00-07:00'
p95
aS'2017-08-08 23:30:00-07:00'
p96
aS'2017-08-07 06:00:00-07:00'
p97
aS'2017-08-07 06:30:00-07:00'
p98
aS'2017-08-07 07:00:00-07:00'
p99
aS'2017-08-07 07:30:00-07:00'
p100
aS'2017-08-07 08:00:00-07:00'
p101
aS'2017-08-07 08:30:00-07:00'
p102
aS'2017-08-07 09:00:00-07:00'
p103
aS'2017-08-07 09:30:00-07:00'
p104
aS'2017-08-07 10:00:00-07:00'
p105
aS'2017-08-07 10:30:00-07:00'
p106
aS'2017-08-07 11:00:00-07:00'
p107
aS'2017-08-07 11:30:00-07:00'
p108
aS'2017-08-07 12:00:00-07:00'
p109
aS'2017-08-07 12:30:00-07:00'
p110
aS'2017-08-07 13:00:00-07:00'
p111
aS'2017-08-07 13:30:00-07:00'
p112
aS'2017-08-07 14:00:00-07:00'
p113
aS'2017-08-07 14:30:00-07:00'
p114
aS'2017-08-07 15:00:00-07:00'
p115
aS'2017-08-07 15:30:00-07:00'
p116
aS'2017-08-07 16:00:00-07:00'
p117
aS'2017-08-07 16:30:00-07:00'
p118
aS'2017-08-07 17:00:00-07:00'
p119
aS'2017-08-07 17:30:00-07:00'
p120
aS'2017-08-07 18:00:00-07:00'
p121
aS'2017-08-07 18:30:00-07:00'
p122
aS'2017-08-07 19:00:00-07:00'
p123
aS'2017-08-07 19:30:00-07:00'
p124
aS'2017-08-07 20:00:00-07:00'
p125
aS'2017-08-07 20:30:00-07:00'
p126
aS'2017-08-07 21:00:00-07:00'
p127
aS'2017-08-07 21:30:00-07:00'
p128
aS'2017-08-07 22:00:00-07:00'
p129
aS'2017-08-07 22:30:00-07:00'
p130
aS'2017-08-07 23:00:00-07:00'
p131
aS'2017-08-07 23:30:00-07:00'
p132
aS'2017-08-08 00:00:00-07:00'
p133
aS'2017-08-08 00:30:00-07:00'
p134
aS'2017-08-08 01:00:00-07:00'
p135
aS'2017-08-08 01:30:00-07:00'
p136
aS'2017-08-08 02:00:00-07:00'
p137
aS'2017-08-08 02:30:00-07:00'
p138
aS'2017-08-08 03:00:00-07:00'
p139
aS'2017-08-08 03:30:00-07:00'
p140
aS'2017-08-08 04:00:00-07:00'
p141
aS'2017-08-08 04:30:00-07:00'
p142
aS'2017-08-08 05:00:00-07:00'
p143
aS'2017-08-08 05:30:00-07:00'
p144
aS'2017-08-08 06:00:00-07:00'
p145
aS'2017-08-08 06:30:00-07:00'
p146
aS'2017-08-08 07:00:00-07:00'
p147
aS'2017-08-07 00:00:00-07:00'
p148
aS'2017-08-07 00:30:00-07:00'
p149
aS'2017-08-07 01:00:00-07:00'
p150
aS'2017-08-07 01:30:00-07:00'
p151
aS'2017-08-07 02:00:00-07:00'
p152
aS'2017-08-07 02:30:00-07:00'
p153
aS'2017-08-07 03:00:00-07:00'
p154
aS'2017-08-07 03:30:00-07:00'
p155
aS'2017-08-07 04:00:00-07:00'
p156
aS'2017-08-07 04:30:00-07:00'
p157
aS'2017-08-07 05:00:00-07:00'
p158
aS'2017-08-07 05:30:00-07:00'
p159
aS'2017-08-07 06:00:00-07:00'
p160
aS'2017-08-07 06:30:00-07:00'
p161
aS'2017-08-07 07:00:00-07:00'
p162
aS'2017-08-07 07:30:00-07:00'
p163
aS'2017-08-07 08:00:00-07:00'
p164
aS'2017-08-07 08:30:00-07:00'
p165
aS'2017-08-07 09:00:00-07:00'
p166
aS'2017-08-07 09:30:00-07:00'
p167
aS'2017-08-07 10:00:00-07:00'
p168
aS'2017-08-07 10:30:00-07:00'
p169
aS'2017-08-07 11:00:00-07:00'
p170
aS'2017-08-07 11:30:00-07:00'
p171
aS'2017-08-07 12:00:00-07:00'
p172
aS'2017-08-07 12:30:00-07:00'
p173
aS'2017-08-07 13:00:00-07:00'
p174
aS'2017-08-07 13:30:00-07:00'
p175
aS'2017-08-07 14:00:00-07:00'
p176
aS'2017-08-07 14:30:00-07:00'
p177
aS'2017-08-07 15:00:00-07:00'
p178
aS'2017-08-07 15:30:00-07:00'
p179
aS'2017-08-07 16:00:00-07:00'
p180
aS'2017-08-07 16:30:00-07:00'
p181
aS'2017-08-07 17:00:00-07:00'
p182
aS'2017-08-07 17:30:00-07:00'
p183
aS'2017-08-07 18:00:00-07:00'
p184
aS'2017-08-07 18:30:00-07:00'
p185
aS'2017-08-07 19:00:00-07:00'
p186
aS'2017-08-07 19:30:00-07:00'
p187
aS'2017-08-07 20:00:00-07:00'
p188
aS'2017-08-07 20:30:00-07:00'
p189
aS'2017-08-07 21:00:00-07:00'
p190
aS'2017-08-07 21:30:00-07:00'
p191
aS'2017-08-07 22:00:00-07:00'
p192
aS'2017-08-07 22:30:00-07:00'
p193
aS'2017-08-07 23:00:00-07:00'
p194
aS'2017-08-07 23:30:00-07:00'
p195
aS'2017-08-08 00:00:00-07:00'
p196
aS'2017-08-08 00:30:00-07:00'
p197
aS'2017-08-08 01:00:00-07:00'
p198
aS'2017-08-08 01:30:00-07:00'
p199
aS'2017-08-08 02:00:00-07:00'
p200
aS'2017-08-08 02:30:00-07:00'
p201
aS'2017-08-08 03:00:00-07:00'
p202
aS'2017-08-08 03:30:00-07:00'
p203
aS'2017-08-08 04:00:00-07:00'
p204
aS'2017-08-08 04:30:00-07:00'
p205
aS'2017-08-08 05:00:00-07:00'
p206
aS'2017-08-08 05:30:00-07:00'
p207
aS'2017-08-08 06:00:00-07:00'
p208
aS'2017-08-08 06:30:00-07:00'
p209
aS'2017-08-08 07:00:00-07:00'
p210
aS'2017-08-08 07:30:00-07:00'
p211
aS'2017-08-08 08:00:00-07:00'
p212
aS'2017-08-08 08:30:00-07:00'
p213
aS'2017-08-08 09:00:00-07:00'
p214
aS'2017-08-08 09:30:00-07:00'
p215
aS'2017-08-08 10:00:00-07:00'
p216
aS'2017-08-08 10:30:00-07:00'
p217
aS'2017-08-08 11:00:00-07:00'
p218
aS'2017-08-08 11:30:00-07:00'
p219
aS'2017-08-08 12:00:00-07:00'
p220
aS'2017-08-08 12:30:00-07:00'
p221
aS'2017-08-08 13:00:00-07:00'
p222
aS'2017-08-08 13:30:00-07:00'
p223
aS'2017-08-08 14:00:00-07:00'
p224
aS'2017-08-08 14:30:00-07:00'
p225
aS'2017-08-08 15:00:00-07:00'
p226
aS'2017-08-08 15:30:00-07:00'
p227
aS'2017-08-08 16:00:00-07:00'
p228
aS'2017-08-08 16:30:00-07:00'
p229
aS'2017-08-08 17:00:00-07:00'
p230
aS'2017-08-08 17:30:00-07:00'
p231
aS'2017-08-08 18:00:00-07:00'
p232
aS'2017-08-08 18:30:00-07:00'
p233
aS'2017-08-08 19:00:00-07:00'
p234
aS'2017-08-08 19:30:00-07:00'
p235
aS'2017-08-08 20:00:00-07:00'
p236
aS'2017-08-08 20:30:00-07:00'
p237
aS'2017-08-08 21:00:00-07:00'
p238
aS'2017-08-08 21:30:00-07:00'
p239
aS'2017-08-08 22:00:00-07:00'
p240
aS'2017-08-08 22:30:00-07:00'
p241
aS'2017-08-08 23:00:00-07:00'
p242
aS'2017-08-07 06:00:00-07:00'
p243
aS'2017-08-07 06:30:00-07:00'
p244
aS'2017-08-07 07:00:00-07:00'
p245
aS'2017-08-07 07:30:00-07:00'
p246
aS'2017-08-07 08:00:00-07:00'
p247
aS'2017-08-07 08:30:00-07:00'
p248
aS'2017-08-07 09:00:00-07:00'
p249
aS'2017-08-07 09:30:00-07:00'
p250
aS'2017-08-07 10:00:00-07:00'
p251
aS'2017-08-07 10:30:00-07:00'
p252
aS'2017-08-07 11:00:00-07:00'
p253
aS'2017-08-07 11:30:00-07:00'
p254
aS'2017-08-07 12:00:00-07:00'
p255
aS'2017-08-07 12:30:00-07:00'
p256
aS'2017-08-07 13:00:00-07:00'
p257
aS'2017-08-07 13:30:00-07:00'
p258
aS'2017-08-07 14:00:00-07:00'
p259
aS'2017-08-07 14:30:00-07:00'
p260
aS'2017-08-07 15:00:00-07:00'
p261
aS'2017-08-07 15:30:00-07:00'
p262
aS'2017-08-07 16:00:00-07:00'
p263
aS'2017-08-07 16:30:00-07:00'
p264
aS'2017-08-07 17:00:00-07:00'
p265
aS'2017-08-07 17:30:00-07:00'
p266
aS'2017-08-07 18:00:00-07:00'
p267
aS'2017-08-07 18:30:00-07:00'
p268
aS'2017-08-07 19:00:00-07:00'
p269
aS'2017-08-07 19:30:00-07:00'
p270
aS'2017-08-07 20:00:00-07:00'
p271
aS'2017-08-07 20:30:00-07:00'
p272
aS'2017-08-07 21:00:00-07:00'
p273
aS'2017-08-07 21:30:00-07:00'
p274
aS'2017-08-07 22:00:00-07:00'
p275
aS'2017-08-07 22:30:00-07:00'
p276
aS'2017-08-07 23:00:00-07:00'
p277
aS'2017-08-07 23:30:00-07:00'
p278
aS'2017-08-08 00:00:00-07:00'
p279
aS'2017-08-08 00:30:00-07:00'
p280
aS'2017-08-08 01:00:00-07:00'
p281
aS'2017-08-08 01:30:00-07:00'
p282
aS'2017-08-08 02:00:00-07:00'
p283
aS'2017-08-08 02:30:00-07:00'
p284
aS'2017-08-08 03:00:00-07:00'
p285
aS'2017-08-08 03:30:00-07:00'
p286
aS'2017-08-08 04:00:00-07:00'
p287
aS'2017-08-08 04:30:00-07:00'
p288
aS'2017-08-08 05:00:00-07:00'
p289
aS'2017-08-08 05:30:00-07:00'
p290
aS'2017-08-08 06:00:00-07:00'
p291
aS'2017-08-08 06:30:00-07:00'
p292
aS'2017-08-08 07:00:00-07:00'
p293
aS'2017-08-08 07:30:00-07:00'
p294
aS'2017-08-08 08:00:00-07:00'
p295
aS'2017-08-08 08:30:00-07:00'
p296
aS'2017-08-08 09:00:00-07:00'
p297
aS'2017-08-08 09:30:00-07:00'
p298
aS'2017-08-08 10:00:00-07:00'
p299
aS'2017-08-08 10:30:00-07:00'
p300
aS'2017-08-08 11:00:00-07:00'
p301
aS'2017-08-08 11:30:00-07:00'
p302
aS'2017-08-08 12:00:00-07:00'
p303
aS'2017-08-08 12:30:00-07:00'
p304
aS'2017-08-08 13:00:00-07:00'
p305
aS'2017-08-08 13:30:00-07:00'
p306
aS'2017-08-08 14:00:00-07:00'
p307
aS'2017-08-08 14:30:00-07:00'
p308
aS'2017-08-08 15:00:00-07:00'
p309
aS'2017-08-08 15:30:00-07:00'
p310
aS'2017-08-08 16:00:00-07:00'
p311
aS'2017-08-08 16:30:00-07:00'
p312
aS'2017-08-08 17:00:00-07:00'
p313
aS'2017-08-08 17:30:00-07:00'
p314
aS'2017-08-08 18:00:00-07:00'
p315
aS'2017-08-08 18:30:00-07:00'
p316
aS'2017-08-08 19:00:00-07:00'
p317
aS'2017-08-08 19:30:00-07:00'
p318
aS'2017-08-08 20:00:00-07:00'
p319
aS'2017-08-08 20:30:00-07:00'
p320
aS'2017-08-08 21:00:00-07:00'
p321
aS'2017-08-08 21:30:00-07:00'
p322
aS'2017-08-08 22:00:00-07:00'
p323
aS'2017-08-07 01:00:00-07:00'
p324
aS'2017-08-07 01:30:00-07:00'
p325
aS'2017-08-07 02:00:00-07:00'
p326
aS'2017-08-07 02:30:00-07:00'
p327
aS'2017-08-07 03:00:00-07:00'
p328
aS'2017-08-07 03:30:00-07:00'
p329
aS'2017-08-07 04:00:00-07:00'
p330
aS'2017-08-07 04:30:00-07:00'
p331
aS'2017-08-07 05:00:00-07:00'
p332
aS'2017-08-07 05:30:00-07:00'
p333
aS'2017-08-07 06:00:00-07:00'
p334
aS'2017-08-07 06:30:00-07:00'
p335
aS'2017-08-07 07:00:00-07:00'
p336
aS'2017-08-07 07:30:00-07:00'
p337
aS'2017-08-07 08:00:00-07:00'
p338
aS'2017-08-07 08:30:00-07:00'
p339
aS'2017-08-07 09:00:00-07:00'
p340
aS'2017-08-07 09:30:00-07:00'
p341
aS'2017-08-07 10:00:00-07:00'
p342
aS'2017-08-07 10:30:00-07:00'
p343
aS'2017-08-07 11:00:00-07:00'
p344
aS'2017-08-07 11:30:00-07:00'
p345
aS'2017-08-07 12:00:00-07:00'
p346
aS'2017-08-07 12:30:00-07:00'
p347
aS'2017-08-07 13:00:00-07:00'
p348
aS'2017-08-07 13:30:00-07:00'
p349
aS'2017-08-07 14:00:00-07:00'
p350
aS'2017-08-07 14:30:00-07:00'
p351
aS'2017-08-07 15:00:00-07:00'
p352
aS'2017-08-07 15:30:00-07:00'
p353
aS'2017-08-07 16:00:00-07:00'
p354
aS'2017-08-07 16:30:00-07:00'
p355
aS'2017-08-07 17:00:00-07:00'
p356
aS'2017-08-07 17:30:00-07:00'
p357
aS'2017-08-07 18:00:00-07:00'
p358
aS'2017-08-07 18:30:00-07:00'
p359
aS'2017-08-07 19:00:00-07:00'
p360
aS'2017-08-07 19:30:00-07:00'
p361
aS'2017-08-07 20:00:00-07:00'
p362
aS'2017-08-07 20:30:00-07:00'
p363
aS'2017-08-07 21:00:00-07:00'
p364
aS'2017-08-07 21:30:00-07:00'
p365
aS'2017-08-07 22:00:00-07:00'
p366
aS'2017-08-07 22:30:00-07:00'
p367
aS'2017-08-07 23:00:00-07:00'
p368
aS'2017-08-07 23:30:00-07:00'
p369
aS'2017-08-08 00:00:00-07:00'
p370
aS'2017-08-08 00:30:00-07:00'
p371
aS'2017-08-08 01:00:00-07:00'
p372
aS'2017-08-08 01:30:00-07:00'
p373
aS'2017-08-08 02:00:00-07:00'
p374
aS'2017-08-08 02:30:00-07:00'
p375
aS'2017-08-08 03:00:00-07:00'
p376
aS'2017-08-08 03:30:00-07:00'
p377
aS'2017-08-08 04:00:00-07:00'
p378
aS'2017-08-08 04:30:00-07:00'
p379
aS'2017-08-08 05:00:00-07:00'
p380
aS'2017-08-08 05:30:00-07:00'
p381
aS'2017-08-08 06:00:00-07:00'
p382
aS'2017-08-08 06:30:00-07:00'
p383
aS'2017-08-08 07:00:00-07:00'
p384
aS'2017-08-08 07:30:00-07:00'
p385
aS'2017-08-08 08:00:00-07:00'
p386
aS'2017-08-08 08:30:00-07:00'
p387
aS'2017-08-08 09:00:00-07:00'
p388
aS'2017-08-08 09:30:00-07:00'
p389
aS'2017-08-08 10:00:00-07:00'
p390
aS'2017-08-08 10:30:00-07:00'
p391
aS'2017-08-08 11:00:00-07:00'
p392
aS'2017-08-08 11:30:00-07:00'
p393
aS'2017-08-08 12:00:00-07:00'
p394
aS'2017-08-08 12:30:00-07:00'
p395
aS'2017-08-08 13:00:00-07:00'
p396
aS'2017-08-08 13:30:00-07:00'
p397
aS'2017-08-08 14:00:00-07:00'
p398
aS'2017-08-08 14:30:00-07:00'
p399
aS'2017-08-08 15:00:00-07:00'
p400
aS'2017-08-08 15:30:00-07:00'
p401
aS'2017-08-08 16:00:00-07:00'
p402
aS'2017-08-08 16:30:00-07:00'
p403
aS'2017-08-08 17:00:00-07:00'
p404
aS'2017-08-08 17:30:00-07:00'
p405
aS'2017-08-08 18:00:00-07:00'
p406
aS'2017-08-08 18:30:00-07:00'
p407
aS'2017-08-08 19:00:00-07:00'
p408
aS'2017-08-08 19:30:00-07:00'
p409
aS'2017-08-08 20:00:00-07:00'
p410
aS'2017-08-08 20:30:00-07:00'
p411
aS'2017-08-08 21:00:00-07:00'
p412
aS'2017-08-08 21:30:00-07:00'
p413
aS'2017-08-08 22:00:00-07:00'
p414
aS'2017-08-08 22:30:00-07:00'
p415
aS'2017-08-08 23:00:00-07:00'
p416
aS'2017-08-07 00:30:00-07:00'
p417
aS'2017-08-07 01:00:00-07:00'
p418
aS'2017-08-07 01:30:00-07:00'
p419
aS'2017-08-07 02:00:00-07:00'
p420
aS'2017-08-07 02:30:00-07:00'
p421
aS'2017-08-07 03:00:00-07:00'
p422
aS'2017-08-07 03:30:00-07:00'
p423
aS'2017-08-07 04:00:00-07:00'
p424
aS'2017-08-07 04:30:00-07:00'
p425
aS'2017-08-07 05:00:00-07:00'
p426
aS'2017-08-07 05:30:00-07:00'
p427
aS'2017-08-07 06:00:00-07:00'
p428
aS'2017-08-07 06:30:00-07:00'
p429
aS'2017-08-07 07:00:00-07:00'
p430
aS'2017-08-07 07:30:00-07:00'
p431
aS'2017-08-07 08:00:00-07:00'
p432
aS'2017-08-07 08:30:00-07:00'
p433
aS'2017-08-07 09:00:00-07:00'
p434
aS'2017-08-07 09:30:00-07:00'
p435
aS'2017-08-07 10:00:00-07:00'
p436
aS'2017-08-07 10:30:00-07:00'
p437
aS'2017-08-07 11:00:00-07:00'
p438
aS'2017-08-07 11:30:00-07:00'
p439
aS'2017-08-07 12:00:00-07:00'
p440
aS'2017-08-07 12:30:00-07:00'
p441
aS'2017-08-07 13:00:00-07:00'
p442
aS'2017-08-07 13:30:00-07:00'
p443
aS'2017-08-07 14:00:00-07:00'
p444
aS'2017-08-07 14:30:00-07:00'
p445
aS'2017-08-07 15:00:00-07:00'
p446
aS'2017-08-07 15:30:00-07:00'
p447
aS'2017-08-07 16:00:00-07:00'
p448
aS'2017-08-07 16:30:00-07:00'
p449
aS'2017-08-07 17:00:00-07:00'
p450
aS'2017-08-07 17:30:00-07:00'
p451
aS'2017-08-07 18:00:00-07:00'
p452
aS'2017-08-07 18:30:00-07:00'
p453
aS'2017-08-07 19:00:00-07:00'
p454
aS'2017-08-07 19:30:00-07:00'
p455
aS'2017-08-07 20:00:00-07:00'
p456
aS'2017-08-07 20:30:00-07:00'
p457
aS'2017-08-07 21:00:00-07:00'
p458
aS'2017-08-07 21:30:00-07:00'
p459
aS'2017-08-07 22:00:00-07:00'
p460
aS'2017-08-07 22:30:00-07:00'
p461
aS'2017-08-07 23:00:00-07:00'
p462
aS'2017-08-07 23:30:00-07:00'
p463
aS'2017-08-08 00:00:00-07:00'
p464
aS'2017-08-08 00:30:00-07:00'
p465
aS'2017-08-08 01:00:00-07:00'
p466
aS'2017-08-08 01:30:00-07:00'
p467
aS'2017-08-08 02:00:00-07:00'
p468
aS'2017-08-08 02:30:00-07:00'
p469
aS'2017-08-08 03:00:00-07:00'
p470
aS'2017-08-08 03:30:00-07:00'
p471
aS'2017-08-08 04:00:00-07:00'
p472
aS'2017-08-08 04:30:00-07:00'
p473
aS'2017-08-08 05:00:00-07:00'
p474
aS'2017-08-08 05:30:00-07:00'
p475
aS'2017-08-08 06:00:00-07:00'
p476
aS'2017-08-08 06:30:00-07:00'
p477
aS'2017-08-08 07:00:00-07:00'
p478
aS'2017-08-08 07:30:00-07:00'
p479
aS'2017-08-08 08:00:00-07:00'
p480
aS'2017-08-08 08:30:00-07:00'
p481
aS'2017-08-08 09:00:00-07:00'
p482
aS'2017-08-08 09:30:00-07:00'
p483
aS'2017-08-08 10:00:00-07:00'
p484
aS'2017-08-08 10:30:00-07:00'
p485
aS'2017-08-08 11:00:00-07:00'
p486
aS'2017-08-08 11:30:00-07:00'
p487
aS'2017-08-08 12:00:00-07:00'
p488
aS'2017-08-08 12:30:00-07:00'
p489
aS'2017-08-08 13:00:00-07:00'
p490
aS'2017-08-08 13:30:00-07:00'
p491
aS'2017-08-08 14:00:00-07:00'
p492
aS'2017-08-08 14:30:00-07:00'
p493
aS'2017-08-08 15:00:00-07:00'
p494
aS'2017-08-08 15:30:00-07:00'
p495
aS'2017-08-08 16:00:00-07:00'
p496
aS'2017-08-08 16:30:00-07:00'
p497
aS'2017-08-08 17:00:00-07:00'
p498
aS'2017-08-08 17:30:00-07:00'
p499
aS'2017-08-08 18:00:00-07:00'
p500
aS'2017-08-08 18:30:00-07:00'
p501
aS'2017-08-07 00:30:00-07:00'
p502
aS'2017-08-07 01:00:00-07:00'
p503
aS'2017-08-07 01:30:00-07:00'
p504
aS'2017-08-07 02:00:00-07:00'
p505
aS'2017-08-07 02:30:00-07:00'
p506
aS'2017-08-07 03:00:00-07:00'
p507
aS'2017-08-07 03:30:00-07:00'
p508
aS'2017-08-07 04:00:00-07:00'
p509
aS'2017-08-07 04:30:00-07:00'
p510
aS'2017-08-07 05:00:00-07:00'
p511
aS'2017-08-07 05:30:00-07:00'
p512
aS'2017-08-07 06:00:00-07:00'
p513
aS'2017-08-07 06:30:00-07:00'
p514
aS'2017-08-07 07:00:00-07:00'
p515
aS'2017-08-07 07:30:00-07:00'
p516
aS'2017-08-07 08:00:00-07:00'
p517
aS'2017-08-07 08:30:00-07:00'
p518
aS'2017-08-07 09:00:00-07:00'
p519
aS'2017-08-07 09:30:00-07:00'
p520
aS'2017-08-07 10:00:00-07:00'
p521
aS'2017-08-07 10:30:00-07:00'
p522
aS'2017-08-07 11:00:00-07:00'
p523
aS'2017-08-07 11:30:00-07:00'
p524
aS'2017-08-07 12:00:00-07:00'
p525
aS'2017-08-07 12:30:00-07:00'
p526
aS'2017-08-07 13:00:00-07:00'
p527
aS'2017-08-07 13:30:00-07:00'
p528
aS'2017-08-07 14:00:00-07:00'
p529
aS'2017-08-07 14:30:00-07:00'
p530
aS'2017-08-07 15:00:00-07:00'
p531
aS'2017-08-07 15:30:00-07:00'
p532
aS'2017-08-07 16:00:00-07:00'
p533
aS'2017-08-07 16:30:00-07:00'
p534
aS'2017-08-07 17:00:00-07:00'
p535
aS'2017-08-07 17:30:00-07:00'
p536
aS'2017-08-07 18:00:00-07:00'
p537
aS'2017-08-07 18:30:00-07:00'
p538
aS'2017-08-07 19:00:00-07:00'
p539
aS'2017-08-07 19:30:00-07:00'
p540
aS'2017-08-07 20:00:00-07:00'
p541
aS'2017-08-07 20:30:00-07:00'
p542
aS'2017-08-07 21:00:00-07:00'
p543
aS'2017-08-07 21:30:00-07:00'
p544
aS'2017-08-07 22:00:00-07:00'
p545
aS'2017-08-07 22:30:00-07:00'
p546
aS'2017-08-07 23:00:00-07:00'
p547
aS'2017-08-07 23:30:00-07:00'
p548
aS'2017-08-08 00:00:00-07:00'
p549
aS'2017-08-08 00:30:00-07:00'
p550
aS'2017-08-08 01:00:00-07:00'
p551
aS'2017-08-08 01:30:00-07:00'
p552
aS'2017-08-08 02:00:00-07:00'
p553
aS'2017-08-08 02:30:00-07:00'
p554
aS'2017-08-08 03:00:00-07:00'
p555
aS'2017-08-08 03:30:00-07:00'
p556
aS'2017-08-08 04:00:00-07:00'
p557
aS'2017-08-08 04:30:00-07:00'
p558
aS'2017-08-08 05:00:00-07:00'
p559
aS'2017-08-08 05:30:00-07:00'
p560
aS'2017-08-08 06:00:00-07:00'
p561
aS'2017-08-08 06:30:00-07:00'
p562
aS'2017-08-08 07:00:00-07:00'
p563
aS'2017-08-08 07:30:00-07:00'
p564
aS'2017-08-08 08:00:00-07:00'
p565
aS'2017-08-08 08:30:00-07:00'
p566
aS'2017-08-08 09:00:00-07:00'
p567
aS'2017-08-08 09:30:00-07:00'
p568
aS'2017-08-08 10:00:00-07:00'
p569
aS'2017-08-08 10:30:00-07:00'
p570
aS'2017-08-08 11:00:00-07:00'
p571
aS'2017-08-08 11:30:00-07:00'
p572
aS'2017-08-08 12:00:00-07:00'
p573
aS'2017-08-08 12:30:00-07:00'
p574
aS'2017-08-08 13:00:00-07:00'
p575
aS'2017-08-08 13:30:00-07:00'
p576
aS'2017-08-08 14:00:00-07:00'
p577
aS'2017-08-08 14:30:00-07:00'
p578
aS'2017-08-08 15:00:00-07:00'
p579
aS'2017-08-08 15:30:00-07:00'
p580
aS'2017-08-08 16:00:00-07:00'
p581
aS'2017-08-08 16:30:00-07:00'
p582
aS'2017-08-08 17:00:00-07:00'
p583
aS'2017-08-08 17:30:00-07:00'
p584
aS'2017-08-08 18:00:00-07:00'
p585
aS'2017-08-08 18:30:00-07:00'
p586
aS'2017-08-08 19:00:00-07:00'
p587
aS'2017-08-08 19:30:00-07:00'
p588
aS'2017-08-08 20:00:00-07:00'
p589
aS'2017-08-08 20:30:00-07:00'
p590
aS'2017-08-08 21:00:00-07:00'
p591
aS'2017-08-08 21:30:00-07:00'
p592
aS'2017-08-08 22:00:00-07:00'
p593
aS'2017-08-08 22:30:00-07:00'
p594
aS'2017-08-08 23:00:00-07:00'
p595
aS'2017-08-08 23:30:00-07:00'
p596
aS'2017-08-07 00:30:00-07:00'
p597
aS'2017-08-07 01:00:00-07:00'
p598
aS'2017-08-07 01:30:00-07:00'
p599
aS'2017-08-07 02:00:00-07:00'
p600
aS'2017-08-07 02:30:00-07:00'
p601
aS'2017-08-07 03:00:00-07:00'
p602
aS'2017-08-07 03:30:00-07:00'
p603
aS'2017-08-07 04:00:00-07:00'
p604
aS'2017-08-07 04:30:00-07:00'
p605
aS'2017-08-07 05:00:00-07:00'
p606
aS'2017-08-07 05:30:00-07:00'
p607
aS'2017-08-07 06:00:00-07:00'
p608
aS'2017-08-07 06:30:00-07:00'
p609
aS'2017-08-07 07:00:00-07:00'
p610
aS'2017-08-07 07:30:00-07:00'
p611
aS'2017-08-07 08:00:00-07:00'
p612
aS'2017-08-07 08:30:00-07:00'
p613
aS'2017-08-07 09:00:00-07:00'
p614
aS'2017-08-07 09:30:00-07:00'
p615
aS'2017-08-07 10:00:00-07:00'
p616
aS'2017-08-07 10:30:00-07:00'
p617
aS'2017-08-07 11:00:00-07:00'
p618
aS'2017-08-07 11:30:00-07:00'
p619
aS'2017-08-07 12:00:00-07:00'
p620
aS'2017-08-07 12:30:00-07:00'
p621
aS'2017-08-07 13:00:00-07:00'
p622
aS'2017-08-07 13:30:00-07:00'
p623
aS'2017-08-07 14:00:00-07:00'
p624
aS'2017-08-07 14:30:00-07:00'
p625
aS'2017-08-07 15:00:00-07:00'
p626
aS'2017-08-07 15:30:00-07:00'
p627
aS'2017-08-07 16:00:00-07:00'
p628
aS'2017-08-07 16:30:00-07:00'
p629
aS'2017-08-07 17:00:00-07:00'
p630
aS'2017-08-07 17:30:00-07:00'
p631
aS'2017-08-07 18:00:00-07:00'
p632
aS'2017-08-07 18:30:00-07:00'
p633
aS'2017-08-07 19:00:00-07:00'
p634
aS'2017-08-07 19:30:00-07:00'
p635
aS'2017-08-07 20:00:00-07:00'
p636
aS'2017-08-07 20:30:00-07:00'
p637
aS'2017-08-07 21:00:00-07:00'
p638
aS'2017-08-07 21:30:00-07:00'
p639
aS'2017-08-07 22:00:00-07:00'
p640
aS'2017-08-07 22:30:00-07:00'
p641
aS'2017-08-07 23:00:00-07:00'
p642
aS'2017-08-07 23:30:00-07:00'
p643
aS'2017-08-08 00:00:00-07:00'
p644
aS'2017-08-08 00:30:00-07:00'
p645
aS'2017-08-08 01:00:00-07:00'
p646
aS'2017-08-08 01:30:00-07:00'
p647
aS'2017-08-08 02:00:00-07:00'
p648
aS'2017-08-08 02:30:00-07:00'
p649
aS'2017-08-08 03:00:00-07:00'
p650
aS'2017-08-08 03:30:00-07:00'
p651
aS'2017-08-08 04:00:00-07:00'
p652
aS'2017-08-08 04:30:00-07:00'
p653
aS'2017-08-08 05:00:00-07:00'
p654
aS'2017-08-08 05:30:00-07:00'
p655
aS'2017-08-08 06:00:00-07:00'
p656
aS'2017-08-08 06:30:00-07:00'
p657
aS'2017-08-08 07:00:00-07:00'
p658
aS'2017-08-08 07:30:00-07:00'
p659
aS'2017-08-08 08:00:00-07:00'
p660
aS'2017-08-08 08:30:00-07:00'
p661
aS'2017-08-08 09:00:00-07:00'
p662
aS'2017-08-08 09:30:00-07:00'
p663
aS'2017-08-08 10:00:00-07:00'
p664
aS'2017-08-08 10:30:00-07:00'
p665
aS'2017-08-08 11:00:00-07:00'
p666
aS'2017-08-08 11:30:00-07:00'
p667
aS'2017-08-08 12:00:00-07:00'
p668
aS'2017-08-08 12:30:00-07:00'
p669
aS'2017-08-08 13:00:00-07:00'
p670
aS'2017-08-08 13:30:00-07:00'
p671
aS'2017-08-08 14:00:00-07:00'
p672
aS'2017-08-08 14:30:00-07:00'
p673
aS'2017-08-08 15:00:00-07:00'
p674
aS'2017-08-08 15:30:00-07:00'
p675
aS'2017-08-08 16:00:00-07:00'
p676
aS'2017-08-08 16:30:00-07:00'
p677
aS'2017-08-08 17:00:00-07:00'
p678
aS'2017-08-08 17:30:00-07:00'
p679
aS'2017-08-08 18:00:00-07:00'
p680
aS'2017-08-08 18:30:00-07:00'
p681
aS'2017-08-08 19:00:00-07:00'
p682
aS'2017-08-08 19:30:00-07:00'
p683
aS'2017-08-08 20:00:00-07:00'
p684
aS'2017-08-08 20:30:00-07:00'
p685
aS'2017-08-08 21:00:00-07:00'
p686
aS'2017-08-07 00:00:00-07:00'
p687
aS'2017-08-07 00:30:00-07:00'
p688
aS'2017-08-07 01:00:00-07:00'
p689
aS'2017-08-07 01:30:00-07:00'
p690
aS'2017-08-07 02:00:00-07:00'
p691
aS'2017-08-07 02:30:00-07:00'
p692
aS'2017-08-07 03:00:00-07:00'
p693
aS'2017-08-07 03:30:00-07:00'
p694
aS'2017-08-07 04:00:00-07:00'
p695
aS'2017-08-07 04:30:00-07:00'
p696
aS'2017-08-07 05:00:00-07:00'
p697
aS'2017-08-07 05:30:00-07:00'
p698
aS'2017-08-07 06:00:00-07:00'
p699
aS'2017-08-07 06:30:00-07:00'
p700
aS'2017-08-07 07:00:00-07:00'
p701
aS'2017-08-07 07:30:00-07:00'
p702
aS'2017-08-07 08:00:00-07:00'
p703
aS'2017-08-07 08:30:00-07:00'
p704
aS'2017-08-07 09:00:00-07:00'
p705
aS'2017-08-07 09:30:00-07:00'
p706
aS'2017-08-07 10:00:00-07:00'
p707
aS'2017-08-07 10:30:00-07:00'
p708
aS'2017-08-07 11:00:00-07:00'
p709
aS'2017-08-07 11:30:00-07:00'
p710
aS'2017-08-07 12:00:00-07:00'
p711
aS'2017-08-07 12:30:00-07:00'
p712
aS'2017-08-07 13:00:00-07:00'
p713
aS'2017-08-07 13:30:00-07:00'
p714
aS'2017-08-07 14:00:00-07:00'
p715
aS'2017-08-07 14:30:00-07:00'
p716
aS'2017-08-07 15:00:00-07:00'
p717
aS'2017-08-07 15:30:00-07:00'
p718
aS'2017-08-07 16:00:00-07:00'
p719
aS'2017-08-07 16:30:00-07:00'
p720
aS'2017-08-07 17:00:00-07:00'
p721
aS'2017-08-07 17:30:00-07:00'
p722
aS'2017-08-07 18:00:00-07:00'
p723
aS'2017-08-07 18:30:00-07:00'
p724
aS'2017-08-07 19:00:00-07:00'
p725
aS'2017-08-07 19:30:00-07:00'
p726
aS'2017-08-07 20:00:00-07:00'
p727
aS'2017-08-07 20:30:00-07:00'
p728
aS'2017-08-07 21:00:00-07:00'
p729
aS'2017-08-07 21:30:00-07:00'
p730
aS'2017-08-07 22:00:00-07:00'
p731
aS'2017-08-07 22:30:00-07:00'
p732
aS'2017-08-07 23:00:00-07:00'
p733
aS'2017-08-07 23:30:00-07:00'
p734
aS'2017-08-08 00:00:00-07:00'
p735
aS'2017-08-08 00:30:00-07:00'
p736
aS'2017-08-08 01:00:00-07:00'
p737
aS'2017-08-08 01:30:00-07:00'
p738
aS'2017-08-08 02:00:00-07:00'
p739
aS'2017-08-08 02:30:00-07:00'
p740
aS'2017-08-08 03:00:00-07:00'
p741
aS'2017-08-08 03:30:00-07:00'
p742
aS'2017-08-08 04:00:00-07:00'
p743
aS'2017-08-08 04:30:00-07:00'
p744
aS'2017-08-08 05:00:00-07:00'
p745
aS'2017-08-08 05:30:00-07:00'
p746
aS'2017-08-08 06:00:00-07:00'
p747
aS'2017-08-08 06:30:00-07:00'
p748
aS'2017-08-08 07:00:00-07:00'
p749
aS'2017-08-08 07:30:00-07:00'
p750
aS'2017-08-08 08:00:00-07:00'
p751
aS'2017-08-08 08:30:00-07:00'
p752
aS'2017-08-08 09:00:00-07:00'
p753
aS'2017-08-08 09:30:00-07:00'
p754
aS'2017-08-08 10:00:00-07:00'
p755
aS'2017-08-08 10:30:00-07:00'
p756
aS'2017-08-08 11:00:00-07:00'
p757
aS'2017-08-08 11:30:00-07:00'
p758
aS'2017-08-08 12:00:00-07:00'
p759
aS'2017-08-08 12:30:00-07:00'
p760
aS'2017-08-08 13:00:00-07:00'
p761
aS'2017-08-08 13:30:00-07:00'
p762
aS'2017-08-08 14:00:00-07:00'
p763
aS'2017-08-08 14:30:00-07:00'
p764
aS'2017-08-08 15:00:00-07:00'
p765
aS'2017-08-08 15:30:00-07:00'
p766
aS'2017-08-08 16:00:00-07:00'
p767
aS'2017-08-08 16:30:00-07:00'
p768
aS'2017-08-08 17:00:00-07:00'
p769
aS'2017-08-08 17:30:00-07:00'
p770
aS'2017-08-08 18:00:00-07:00'
p771
aS'2017-08-08 18:30:00-07:00'
p772
aS'2017-08-08 19:00:00-07:00'
p773
aS'2017-08-08 19:30:00-07:00'
p774
aS'2017-08-08 20:00:00-07:00'
p775
aS'2017-08-08 20:30:00-07:00'
p776
aS'2017-08-08 21:00:00-07:00'
p777
aS'2017-08-08 21:30:00-07:00'
p778
aS'2017-08-08 22:00:00-07:00'
p779
aS'2017-08-08 22:30:00-07:00'
p780
aS'2017-08-08 23:00:00-07:00'
p781
aS'2017-08-07 06:00:00-07:00'
p782
aS'2017-08-07 06:30:00-07:00'
p783
aS'2017-08-07 07:00:00-07:00'
p784
aS'2017-08-07 07:30:00-07:00'
p785
aS'2017-08-07 08:00:00-07:00'
p786
aS'2017-08-07 08:30:00-07:00'
p787
aS'2017-08-07 09:00:00-07:00'
p788
aS'2017-08-07 09:30:00-07:00'
p789
aS'2017-08-07 10:00:00-07:00'
p790
aS'2017-08-07 10:30:00-07:00'
p791
aS'2017-08-07 11:00:00-07:00'
p792
aS'2017-08-07 11:30:00-07:00'
p793
aS'2017-08-07 12:00:00-07:00'
p794
aS'2017-08-07 12:30:00-07:00'
p795
aS'2017-08-07 13:00:00-07:00'
p796
aS'2017-08-07 13:30:00-07:00'
p797
aS'2017-08-07 14:00:00-07:00'
p798
aS'2017-08-07 14:30:00-07:00'
p799
aS'2017-08-07 15:00:00-07:00'
p800
aS'2017-08-07 15:30:00-07:00'
p801
aS'2017-08-07 16:00:00-07:00'
p802
aS'2017-08-07 16:30:00-07:00'
p803
aS'2017-08-07 17:00:00-07:00'
p804
aS'2017-08-07 17:30:00-07:00'
p805
aS'2017-08-07 18:00:00-07:00'
p806
aS'2017-08-07 18:30:00-07:00'
p807
aS'2017-08-07 19:00:00-07:00'
p808
aS'2017-08-07 19:30:00-07:00'
p809
aS'2017-08-07 20:00:00-07:00'
p810
aS'2017-08-07 20:30:00-07:00'
p811
aS'2017-08-07 21:00:00-07:00'
p812
aS'2017-08-07 21:30:00-07:00'
p813
aS'2017-08-07 22:00:00-07:00'
p814
aS'2017-08-07 22:30:00-07:00'
p815
aS'2017-08-07 23:00:00-07:00'
p816
aS'2017-08-07 23:30:00-07:00'
p817
aS'2017-08-08 00:00:00-07:00'
p818
aS'2017-08-08 00:30:00-07:00'
p819
aS'2017-08-08 01:00:00-07:00'
p820
aS'2017-08-08 01:30:00-07:00'
p821
aS'2017-08-08 02:00:00-07:00'
p822
aS'2017-08-08 02:30:00-07:00'
p823
aS'2017-08-08 03:00:00-07:00'
p824
aS'2017-08-08 03:30:00-07:00'
p825
aS'2017-08-08 04:00:00-07:00'
p826
aS'2017-08-08 04:30:00-07:00'
p827
aS'2017-08-08 05:00:00-07:00'
p828
aS'2017-08-08 05:30:00-07:00'
p829
aS'2017-08-08 06:00:00-07:00'
p830
aS'2017-08-08 06:30:00-07:00'
p831
aS'2017-08-08 07:00:00-07:00'
p832
aS'2017-08-08 07:30:00-07:00'
p833
aS'2017-08-08 08:00:00-07:00'
p834
aS'2017-08-08 08:30:00-07:00'
p835
aS'2017-08-08 09:00:00-07:00'
p836
aS'2017-08-08 09:30:00-07:00'
p837
aS'2017-08-08 10:00:00-07:00'
p838
aS'2017-08-08 10:30:00-07:00'
p839
aS'2017-08-08 11:00:00-07:00'
p840
aS'2017-08-08 11:30:00-07:00'
p841
aS'2017-08-08 12:00:00-07:00'
p842
aS'2017-08-08 12:30:00-07:00'
p843
aS'2017-08-08 13:00:00-07:00'
p844
aS'2017-08-08 13:30:00-07:00'
p845
aS'2017-08-08 14:00:00-07:00'
p846
aS'2017-08-08 14:30:00-07:00'
p847
aS'2017-08-08 15:00:00-07:00'
p848
aS'2017-08-08 15:30:00-07:00'
p849
aS'2017-08-08 16:00:00-07:00'
p850
aS'2017-08-08 16:30:00-07:00'
p851
aS'2017-08-08 17:00:00-07:00'
p852
aS'2017-08-08 17:30:00-07:00'
p853
aS'2017-08-08 18:00:00-07:00'
p854
aS'2017-08-07 03:00:00-07:00'
p855
aS'2017-08-07 03:30:00-07:00'
p856
aS'2017-08-07 04:00:00-07:00'
p857
aS'2017-08-07 04:30:00-07:00'
p858
aS'2017-08-07 05:00:00-07:00'
p859
aS'2017-08-07 05:30:00-07:00'
p860
aS'2017-08-07 06:00:00-07:00'
p861
aS'2017-08-07 06:30:00-07:00'
p862
aS'2017-08-07 07:00:00-07:00'
p863
aS'2017-08-07 07:30:00-07:00'
p864
aS'2017-08-07 08:00:00-07:00'
p865
aS'2017-08-07 08:30:00-07:00'
p866
aS'2017-08-07 09:00:00-07:00'
p867
aS'2017-08-07 09:30:00-07:00'
p868
aS'2017-08-07 10:00:00-07:00'
p869
aS'2017-08-07 10:30:00-07:00'
p870
aS'2017-08-07 11:00:00-07:00'
p871
aS'2017-08-07 11:30:00-07:00'
p872
aS'2017-08-07 12:00:00-07:00'
p873
aS'2017-08-07 12:30:00-07:00'
p874
aS'2017-08-07 13:00:00-07:00'
p875
aS'2017-08-07 13:30:00-07:00'
p876
aS'2017-08-07 14:00:00-07:00'
p877
aS'2017-08-07 14:30:00-07:00'
p878
aS'2017-08-07 15:00:00-07:00'
p879
aS'2017-08-07 15:30:00-07:00'
p880
aS'2017-08-07 16:00:00-07:00'
p881
aS'2017-08-07 16:30:00-07:00'
p882
aS'2017-08-07 17:00:00-07:00'
p883
aS'2017-08-07 17:30:00-07:00'
p884
aS'2017-08-07 18:00:00-07:00'
p885
aS'2017-08-07 18:30:00-07:00'
p886
aS'2017-08-07 19:00:00-07:00'
p887
aS'2017-08-07 19:30:00-07:00'
p888
aS'2017-08-07 20:00:00-07:00'
p889
aS'2017-08-07 20:30:00-07:00'
p890
aS'2017-08-07 21:00:00-07:00'
p891
aS'2017-08-07 21:30:00-07:00'
p892
aS'2017-08-07 22:00:00-07:00'
p893
aS'2017-08-07 22:30:00-07:00'
p894
aS'2017-08-07 23:00:00-07:00'
p895
aS'2017-08-07 23:30:00-07:00'
p896
aS'2017-08-08 00:00:00-07:00'
p897
aS'2017-08-08 00:30:00-07:00'
p898
aS'2017-08-08 01:00:00-07:00'
p899
aS'2017-08-08 01:30:00-07:00'
p900
aS'2017-08-08 02:00:00-07:00'
p901
aS'2017-08-08 02:30:00-07:00'
p902
aS'2017-08-08 03:00:00-07:00'
p903
aS'2017-08-08 03:30:00-07:00'
p904
aS'2017-08-08 04:00:00-07:00'
p905
aS'2017-08-08 04:30:00-07:00'
p906
aS'2017-08-08 05:00:00-07:00'
p907
aS'2017-08-08 05:30:00-07:00'
p908
aS'2017-08-08 06:00:00-07:00'
p909
aS'2017-08-08 06:30:00-07:00'
p910
aS'2017-08-08 07:00:00-07:00'
p911
aS'2017-08-08 07:30:00-07:00'
p912
aS'2017-08-08 08:00:00-07:00'
p913
aS'2017-08-08 08:30:00-07:00'
p914
aS'2017-08-08 09:00:00-07:00'
p915
aS'2017-08-08 09:30:00-07:00'
p916
aS'2017-08-08 10:00:00-07:00'
p917
aS'2017-08-08 10:30:00-07:00'
p918
aS'2017-08-08 11:00:00-07:00'
p919
aS'2017-08-08 11:30:00-07:00'
p920
aS'2017-08-08 12:00:00-07:00'
p921
aS'2017-08-08 12:30:00-07:00'
p922
aS'2017-08-08 13:00:00-07:00'
p923
aS'2017-08-08 13:30:00-07:00'
p924
aS'2017-08-08 14:00:00-07:00'
p925
aS'2017-08-08 14:30:00-07:00'
p926
aS'2017-08-08 15:00:00-07:00'
p927
aS'2017-08-08 15:30:00-07:00'
p928
aS'2017-08-08 16:00:00-07:00'
p929
aS'2017-08-08 16:30:00-07:00'
p930
aS'2017-08-08 17:00:00-07:00'
p931
aS'2017-08-08 17:30:00-07:00'
p932
aS'2017-08-08 18:00:00-07:00'
p933
aS'2017-08-08 18:30:00-07:00'
p934
aS'2017-08-08 19:00:00-07:00'
p935
aS'2017-08-08 19:30:00-07:00'
p936
aS'2017-08-08 20:00:00-07:00'
p937
aS'2017-08-08 20:30:00-07:00'
p938
aS'2017-08-08 21:00:00-07:00'
p939
aS'2017-08-08 21:30:00-07:00'
p940
aS'2017-08-08 22:00:00-07:00'
p941
aS'2017-08-07 06:00:00-07:00'
p942
aS'2017-08-07 06:30:00-07:00'
p943
aS'2017-08-07 07:00:00-07:00'
p944
aS'2017-08-07 07:30:00-07:00'
p945
aS'2017-08-07 08:00:00-07:00'
p946
aS'2017-08-07 08:30:00-07:00'
p947
aS'2017-08-07 09:00:00-07:00'
p948
aS'2017-08-07 09:30:00-07:00'
p949
aS'2017-08-07 10:00:00-07:00'
p950
aS'2017-08-07 10:30:00-07:00'
p951
aS'2017-08-07 11:00:00-07:00'
p952
aS'2017-08-07 11:30:00-07:00'
p953
aS'2017-08-07 12:00:00-07:00'
p954
aS'2017-08-07 12:30:00-07:00'
p955
aS'2017-08-07 13:00:00-07:00'
p956
aS'2017-08-07 13:30:00-07:00'
p957
aS'2017-08-07 14:00:00-07:00'
p958
aS'2017-08-07 14:30:00-07:00'
p959
aS'2017-08-07 15:00:00-07:00'
p960
aS'2017-08-07 15:30:00-07:00'
p961
aS'2017-08-07 16:00:00-07:00'
p962
aS'2017-08-07 16:30:00-07:00'
p963
aS'2017-08-07 17:00:00-07:00'
p964
aS'2017-08-07 17:30:00-07:00'
p965
aS'2017-08-07 18:00:00-07:00'
p966
aS'2017-08-07 18:30:00-07:00'
p967
aS'2017-08-07 19:00:00-07:00'
p968
aS'2017-08-07 19:30:00-07:00'
p969
aS'2017-08-07 20:00:00-07:00'
p970
aS'2017-08-07 20:30:00-07:00'
p971
aS'2017-08-07 21:00:00-07:00'
p972
aS'2017-08-07 21:30:00-07:00'
p973
aS'2017-08-07 22:00:00-07:00'
p974
aS'2017-08-07 22:30:00-07:00'
p975
aS'2017-08-07 23:00:00-07:00'
p976
aS'2017-08-07 23:30:00-07:00'
p977
aS'2017-08-08 00:00:00-07:00'
p978
aS'2017-08-08 00:30:00-07:00'
p979
aS'2017-08-08 01:00:00-07:00'
p980
aS'2017-08-08 01:30:00-07:00'
p981
aS'2017-08-08 02:00:00-07:00'
p982
aS'2017-08-08 02:30:00-07:00'
p983
aS'2017-08-08 03:00:00-07:00'
p984
aS'2017-08-08 03:30:00-07:00'
p985
aS'2017-08-08 04:00:00-07:00'
p986
aS'2017-08-08 04:30:00-07:00'
p987
aS'2017-08-08 05:00:00-07:00'
p988
aS'2017-08-08 05:30:00-07:00'
p989
aS'2017-08-08 06:00:00-07:00'
p990
aS'2017-08-08 06:30:00-07:00'
p991
aS'2017-08-08 07:00:00-07:00'
p992
aS'2017-08-08 07:30:00-07:00'
p993
aS'2017-08-08 08:00:00-07:00'
p994
aS'2017-08-08 08:30:00-07:00'
p995
aS'2017-08-08 09:00:00-07:00'
p996
aS'2017-08-08 09:30:00-07:00'
p997
aS'2017-08-08 10:00:00-07:00'
p998
aS'2017-08-07 06:00:00-07:00'
p999
aS'2017-08-07 06:30:00-07:00'
p1000
aS'2017-08-07 07:00:00-07:00'
p1001
aS'2017-08-07 07:30:00-07:00'
p1002
aS'2017-08-07 08:00:00-07:00'
p1003
aS'2017-08-07 08:30:00-07:00'
p1004
aS'2017-08-07 09:00:00-07:00'
p1005
aS'2017-08-07 09:30:00-07:00'
p1006
aS'2017-08-07 10:00:00-07:00'
p1007
aS'2017-08-07 10:30:00-07:00'
p1008
aS'2017-08-07 11:00:00-07:00'
p1009
aS'2017-08-07 11:30:00-07:00'
p1010
aS'2017-08-07 12:00:00-07:00'
p1011
aS'2017-08-07 12:30:00-07:00'
p1012
aS'2017-08-07 13:00:00-07:00'
p1013
aS'2017-08-07 13:30:00-07:00'
p1014
aS'2017-08-07 14:00:00-07:00'
p1015
aS'2017-08-07 14:30:00-07:00'
p1016
aS'2017-08-07 15:00:00-07:00'
p1017
aS'2017-08-07 15:30:00-07:00'
p1018
aS'2017-08-07 16:00:00-07:00'
p1019
aS'2017-08-07 16:30:00-07:00'
p1020
aS'2017-08-07 17:00:00-07:00'
p1021
aS'2017-08-07 17:30:00-07:00'
p1022
aS'2017-08-07 18:00:00-07:00'
p1023
aS'2017-08-07 18:30:00-07:00'
p1024
aS'2017-08-07 19:00:00-07:00'
p1025
aS'2017-08-07 19:30:00-07:00'
p1026
aS'2017-08-07 20:00:00-07:00'
p1027
aS'2017-08-07 20:30:00-07:00'
p1028
aS'2017-08-07 21:00:00-07:00'
p1029
aS'2017-08-07 21:30:00-07:00'
p1030
aS'2017-08-07 22:00:00-07:00'
p1031
aS'2017-08-07 22:30:00-07:00'
p1032
aS'2017-08-07 23:00:00-07:00'
p1033
aS'2017-08-07 23:30:00-07:00'
p1034
aS'2017-08-08 00:00:00-07:00'
p1035
aS'2017-08-08 00:30:00-07:00'
p1036
aS'2017-08-08 01:00:00-07:00'
p1037
aS'2017-08-08 01:30:00-07:00'
p1038
aS'2017-08-08 02:00:00-07:00'
p1039
aS'2017-08-08 02:30:00-07:00'
p1040
aS'2017-08-08 03:00:00-07:00'
p1041
aS'2017-08-08 03:30:00-07:00'
p1042
aS'2017-08-08 04:00:00-07:00'
p1043
aS'2017-08-08 04:30:00-07:00'
p1044
aS'2017-08-08 05:00:00-07:00'
p1045
aS'2017-08-08 05:30:00-07:00'
p1046
aS'2017-08-08 06:00:00-07:00'
p1047
aS'2017-08-08 06:30:00-07:00'
p1048
aS'2017-08-08 07:00:00-07:00'
p1049
aS'2017-08-07 01:30:00-07:00'
p1050
aS'2017-08-07 02:00:00-07:00'
p1051
aS'2017-08-07 02:30:00-07:00'
p1052
aS'2017-08-07 03:00:00-07:00'
p1053
aS'2017-08-07 03:30:00-07:00'
p1054
aS'2017-08-07 04:00:00-07:00'
p1055
aS'2017-08-07 04:30:00-07:00'
p1056
aS'2017-08-07 05:00:00-07:00'
p1057
aS'2017-08-07 05:30:00-07:00'
p1058
aS'2017-08-07 06:00:00-07:00'
p1059
aS'2017-08-07 06:30:00-07:00'
p1060
aS'2017-08-07 07:00:00-07:00'
p1061
aS'2017-08-07 07:30:00-07:00'
p1062
aS'2017-08-07 08:00:00-07:00'
p1063
aS'2017-08-07 08:30:00-07:00'
p1064
aS'2017-08-07 09:00:00-07:00'
p1065
aS'2017-08-07 09:30:00-07:00'
p1066
aS'2017-08-07 10:00:00-07:00'
p1067
aS'2017-08-07 10:30:00-07:00'
p1068
aS'2017-08-07 11:00:00-07:00'
p1069
aS'2017-08-07 11:30:00-07:00'
p1070
aS'2017-08-07 12:00:00-07:00'
p1071
aS'2017-08-07 12:30:00-07:00'
p1072
aS'2017-08-07 13:00:00-07:00'
p1073
aS'2017-08-07 13:30:00-07:00'
p1074
aS'2017-08-07 14:00:00-07:00'
p1075
aS'2017-08-07 14:30:00-07:00'
p1076
aS'2017-08-07 15:00:00-07:00'
p1077
aS'2017-08-07 15:30:00-07:00'
p1078
aS'2017-08-07 16:00:00-07:00'
p1079
aS'2017-08-07 16:30:00-07:00'
p1080
aS'2017-08-07 17:00:00-07:00'
p1081
aS'2017-08-07 17:30:00-07:00'
p1082
aS'2017-08-07 18:00:00-07:00'
p1083
aS'2017-08-07 18:30:00-07:00'
p1084
aS'2017-08-07 19:00:00-07:00'
p1085
aS'2017-08-07 19:30:00-07:00'
p1086
aS'2017-08-07 20:00:00-07:00'
p1087
aS'2017-08-07 20:30:00-07:00'
p1088
aS'2017-08-07 21:00:00-07:00'
p1089
aS'2017-08-07 21:30:00-07:00'
p1090
aS'2017-08-07 22:00:00-07:00'
p1091
aS'2017-08-07 22:30:00-07:00'
p1092
aS'2017-08-07 23:00:00-07:00'
p1093
aS'2017-08-07 23:30:00-07:00'
p1094
aS'2017-08-08 00:00:00-07:00'
p1095
aS'2017-08-08 00:30:00-07:00'
p1096
aS'2017-08-08 01:00:00-07:00'
p1097
aS'2017-08-08 01:30:00-07:00'
p1098
aS'2017-08-08 02:00:00-07:00'
p1099
aS'2017-08-08 02:30:00-07:00'
p1100
aS'2017-08-08 03:00:00-07:00'
p1101
aS'2017-08-08 03:30:00-07:00'
p1102
aS'2017-08-08 04:00:00-07:00'
p1103
aS'2017-08-08 04:30:00-07:00'
p1104
aS'2017-08-08 05:00:00-07:00'
p1105
aS'2017-08-08 05:30:00-07:00'
p1106
aS'2017-08-08 06:00:00-07:00'
p1107
aS'2017-08-08 06:30:00-07:00'
p1108
aS'2017-08-08 07:00:00-07:00'
p1109
aS'2017-08-08 07:30:00-07:00'
p1110
aS'2017-08-08 08:00:00-07:00'
p1111
aS'2017-08-08 08:30:00-07:00'
p1112
aS'2017-08-08 09:00:00-07:00'
p1113
aS'2017-08-08 09:30:00-07:00'
p1114
aS'2017-08-08 10:00:00-07:00'
p1115
aS'2017-08-08 10:30:00-07:00'
p1116
aS'2017-08-08 11:00:00-07:00'
p1117
aS'2017-08-08 11:30:00-07:00'
p1118
aS'2017-08-08 12:00:00-07:00'
p1119
aS'2017-08-08 12:30:00-07:00'
p1120
aS'2017-08-08 13:00:00-07:00'
p1121
aS'2017-08-08 13:30:00-07:00'
p1122
aS'2017-08-08 14:00:00-07:00'
p1123
aS'2017-08-08 14:30:00-07:00'
p1124
aS'2017-08-08 15:00:00-07:00'
p1125
aS'2017-08-08 15:30:00-07:00'
p1126
aS'2017-08-08 16:00:00-07:00'
p1127
aS'2017-08-08 16:30:00-07:00'
p1128
aS'2017-08-08 17:00:00-07:00'
p1129
aS'2017-08-08 17:30:00-07:00'
p1130
aS'2017-08-08 18:00:00-07:00'
p1131
aS'2017-08-08 18:30:00-07:00'
p1132
aS'2017-08-08 19:00:00-07:00'
p1133
aS'2017-08-08 19:30:00-07:00'
p1134
aS'2017-08-08 20:00:00-07:00'
p1135
aS'2017-08-08 20:30:00-07:00'
p1136
aS'2017-08-08 21:00:00-07:00'
p1137
aS'2017-08-08 21:30:00-07:00'
p1138
aS'2017-08-08 22:00:00-07:00'
p1139
aS'2017-08-08 22:30:00-07:00'
p1140
aS'2017-08-08 23:00:00-07:00'
p1141
aS'2017-08-08 23:30:00-07:00'
p1142
aS'2017-08-07 03:00:00-07:00'
p1143
aS'2017-08-07 03:30:00-07:00'
p1144
aS'2017-08-07 04:00:00-07:00'
p1145
aS'2017-08-07 04:30:00-07:00'
p1146
aS'2017-08-07 05:00:00-07:00'
p1147
aS'2017-08-07 05:30:00-07:00'
p1148
aS'2017-08-07 06:00:00-07:00'
p1149
aS'2017-08-07 06:30:00-07:00'
p1150
aS'2017-08-07 07:00:00-07:00'
p1151
aS'2017-08-07 07:30:00-07:00'
p1152
aS'2017-08-07 08:00:00-07:00'
p1153
aS'2017-08-07 08:30:00-07:00'
p1154
aS'2017-08-07 09:00:00-07:00'
p1155
aS'2017-08-07 09:30:00-07:00'
p1156
aS'2017-08-07 10:00:00-07:00'
p1157
aS'2017-08-07 10:30:00-07:00'
p1158
aS'2017-08-07 11:00:00-07:00'
p1159
aS'2017-08-07 11:30:00-07:00'
p1160
aS'2017-08-07 12:00:00-07:00'
p1161
aS'2017-08-07 12:30:00-07:00'
p1162
aS'2017-08-07 13:00:00-07:00'
p1163
aS'2017-08-07 13:30:00-07:00'
p1164
aS'2017-08-07 14:00:00-07:00'
p1165
aS'2017-08-07 14:30:00-07:00'
p1166
aS'2017-08-07 15:00:00-07:00'
p1167
aS'2017-08-07 15:30:00-07:00'
p1168
aS'2017-08-07 16:00:00-07:00'
p1169
aS'2017-08-07 16:30:00-07:00'
p1170
aS'2017-08-07 17:00:00-07:00'
p1171
aS'2017-08-07 17:30:00-07:00'
p1172
aS'2017-08-07 18:00:00-07:00'
p1173
aS'2017-08-07 18:30:00-07:00'
p1174
aS'2017-08-07 19:00:00-07:00'
p1175
aS'2017-08-07 19:30:00-07:00'
p1176
aS'2017-08-07 20:00:00-07:00'
p1177
aS'2017-08-07 20:30:00-07:00'
p1178
aS'2017-08-07 21:00:00-07:00'
p1179
aS'2017-08-07 21:30:00-07:00'
p1180
aS'2017-08-07 22:00:00-07:00'
p1181
aS'2017-08-07 22:30:00-07:00'
p1182
aS'2017-08-07 23:00:00-07:00'
p1183
aS'2017-08-07 23:30:00-07:00'
p1184
aS'2017-08-08 00:00:00-07:00'
p1185
aS'2017-08-08 00:30:00-07:00'
p1186
aS'2017-08-08 01:00:00-07:00'
p1187
aS'2017-08-08 01:30:00-07:00'
p1188
aS'2017-08-08 02:00:00-07:00'
p1189
aS'2017-08-08 02:30:00-07:00'
p1190
aS'2017-08-08 03:00:00-07:00'
p1191
aS'2017-08-08 03:30:00-07:00'
p1192
aS'2017-08-08 04:00:00-07:00'
p1193
aS'2017-08-08 04:30:00-07:00'
p1194
aS'2017-08-08 05:00:00-07:00'
p1195
aS'2017-08-08 05:30:00-07:00'
p1196
aS'2017-08-08 06:00:00-07:00'
p1197
aS'2017-08-08 06:30:00-07:00'
p1198
aS'2017-08-08 07:00:00-07:00'
p1199
aS'2017-08-08 07:30:00-07:00'
p1200
aS'2017-08-08 08:00:00-07:00'
p1201
aS'2017-08-08 08:30:00-07:00'
p1202
aS'2017-08-08 09:00:00-07:00'
p1203
aS'2017-08-08 09:30:00-07:00'
p1204
aS'2017-08-08 10:00:00-07:00'
p1205
aS'2017-08-08 10:30:00-07:00'
p1206
aS'2017-08-08 11:00:00-07:00'
p1207
aS'2017-08-08 11:30:00-07:00'
p1208
aS'2017-08-08 12:00:00-07:00'
p1209
aS'2017-08-08 12:30:00-07:00'
p1210
aS'2017-08-08 13:00:00-07:00'
p1211
aS'2017-08-08 13:30:00-07:00'
p1212
aS'2017-08-08 14:00:00-07:00'
p1213
aS'2017-08-08 14:30:00-07:00'
p1214
aS'2017-08-08 15:00:00-07:00'
p1215
aS'2017-08-08 15:30:00-07:00'
p1216
aS'2017-08-08 16:00:00-07:00'
p1217
aS'2017-08-08 16:30:00-07:00'
p1218
aS'2017-08-08 17:00:00-07:00'
p1219
aS'2017-08-08 17:30:00-07:00'
p1220
aS'2017-08-08 18:00:00-07:00'
p1221
aS'2017-08-08 18:30:00-07:00'
p1222
aS'2017-08-08 19:00:00-07:00'
p1223
aS'2017-08-08 19:30:00-07:00'
p1224
aS'2017-08-08 20:00:00-07:00'
p1225
aS'2017-08-08 20:30:00-07:00'
p1226
aS'2017-08-07 06:00:00-07:00'
p1227
aS'2017-08-07 06:30:00-07:00'
p1228
aS'2017-08-07 07:00:00-07:00'
p1229
aS'2017-08-07 07:30:00-07:00'
p1230
aS'2017-08-07 08:00:00-07:00'
p1231
aS'2017-08-07 08:30:00-07:00'
p1232
aS'2017-08-07 09:00:00-07:00'
p1233
aS'2017-08-07 09:30:00-07:00'
p1234
aS'2017-08-07 10:00:00-07:00'
p1235
aS'2017-08-07 10:30:00-07:00'
p1236
aS'2017-08-07 11:00:00-07:00'
p1237
aS'2017-08-07 11:30:00-07:00'
p1238
aS'2017-08-07 12:00:00-07:00'
p1239
aS'2017-08-07 12:30:00-07:00'
p1240
aS'2017-08-07 13:00:00-07:00'
p1241
aS'2017-08-07 13:30:00-07:00'
p1242
aS'2017-08-07 14:00:00-07:00'
p1243
aS'2017-08-07 14:30:00-07:00'
p1244
aS'2017-08-07 15:00:00-07:00'
p1245
aS'2017-08-07 15:30:00-07:00'
p1246
aS'2017-08-07 16:00:00-07:00'
p1247
aS'2017-08-07 16:30:00-07:00'
p1248
aS'2017-08-07 17:00:00-07:00'
p1249
aS'2017-08-07 17:30:00-07:00'
p1250
aS'2017-08-07 18:00:00-07:00'
p1251
aS'2017-08-07 18:30:00-07:00'
p1252
aS'2017-08-07 19:00:00-07:00'
p1253
aS'2017-08-07 19:30:00-07:00'
p1254
aS'2017-08-07 20:00:00-07:00'
p1255
aS'2017-08-07 20:30:00-07:00'
p1256
aS'2017-08-07 21:00:00-07:00'
p1257
aS'2017-08-07 21:30:00-07:00'
p1258
aS'2017-08-07 22:00:00-07:00'
p1259
aS'2017-08-07 22:30:00-07:00'
p1260
aS'2017-08-07 23:00:00-07:00'
p1261
aS'2017-08-07 23:30:00-07:00'
p1262
aS'2017-08-08 00:00:00-07:00'
p1263
aS'2017-08-08 00:30:00-07:00'
p1264
aS'2017-08-08 01:00:00-07:00'
p1265
aS'2017-08-08 01:30:00-07:00'
p1266
aS'2017-08-08 02:00:00-07:00'
p1267
aS'2017-08-08 02:30:00-07:00'
p1268
aS'2017-08-08 03:00:00-07:00'
p1269
aS'2017-08-08 03:30:00-07:00'
p1270
aS'2017-08-08 04:00:00-07:00'
p1271
aS'2017-08-08 04:30:00-07:00'
p1272
aS'2017-08-08 05:00:00-07:00'
p1273
aS'2017-08-08 05:30:00-07:00'
p1274
aS'2017-08-08 06:00:00-07:00'
p1275
aS'2017-08-08 06:30:00-07:00'
p1276
aS'2017-08-08 07:00:00-07:00'
p1277
aS'2017-08-07 00:00:00-07:00'
p1278
aS'2017-08-07 00:30:00-07:00'
p1279
aS'2017-08-07 01:00:00-07:00'
p1280
aS'2017-08-07 01:30:00-07:00'
p1281
aS'2017-08-07 02:00:00-07:00'
p1282
aS'2017-08-07 02:30:00-07:00'
p1283
aS'2017-08-07 03:00:00-07:00'
p1284
aS'2017-08-07 03:30:00-07:00'
p1285
aS'2017-08-07 04:00:00-07:00'
p1286
aS'2017-08-07 04:30:00-07:00'
p1287
aS'2017-08-07 05:00:00-07:00'
p1288
aS'2017-08-07 05:30:00-07:00'
p1289
aS'2017-08-07 06:00:00-07:00'
p1290
aS'2017-08-07 06:30:00-07:00'
p1291
aS'2017-08-07 07:00:00-07:00'
p1292
aS'2017-08-07 07:30:00-07:00'
p1293
aS'2017-08-07 08:00:00-07:00'
p1294
aS'2017-08-07 08:30:00-07:00'
p1295
aS'2017-08-07 09:00:00-07:00'
p1296
aS'2017-08-07 09:30:00-07:00'
p1297
aS'2017-08-07 10:00:00-07:00'
p1298
aS'2017-08-07 10:30:00-07:00'
p1299
aS'2017-08-07 11:00:00-07:00'
p1300
aS'2017-08-07 11:30:00-07:00'
p1301
aS'2017-08-07 12:00:00-07:00'
p1302
aS'2017-08-07 12:30:00-07:00'
p1303
aS'2017-08-07 13:00:00-07:00'
p1304
aS'2017-08-07 13:30:00-07:00'
p1305
aS'2017-08-07 14:00:00-07:00'
p1306
aS'2017-08-07 14:30:00-07:00'
p1307
aS'2017-08-07 15:00:00-07:00'
p1308
aS'2017-08-07 15:30:00-07:00'
p1309
aS'2017-08-07 16:00:00-07:00'
p1310
aS'2017-08-07 16:30:00-07:00'
p1311
aS'2017-08-07 17:00:00-07:00'
p1312
aS'2017-08-07 17:30:00-07:00'
p1313
aS'2017-08-07 18:00:00-07:00'
p1314
aS'2017-08-07 18:30:00-07:00'
p1315
aS'2017-08-07 19:00:00-07:00'
p1316
aS'2017-08-07 19:30:00-07:00'
p1317
aS'2017-08-07 20:00:00-07:00'
p1318
aS'2017-08-07 20:30:00-07:00'
p1319
aS'2017-08-07 21:00:00-07:00'
p1320
aS'2017-08-07 21:30:00-07:00'
p1321
aS'2017-08-07 22:00:00-07:00'
p1322
aS'2017-08-07 22:30:00-07:00'
p1323
aS'2017-08-07 23:00:00-07:00'
p1324
aS'2017-08-07 23:30:00-07:00'
p1325
aS'2017-08-08 00:00:00-07:00'
p1326
aS'2017-08-08 00:30:00-07:00'
p1327
aS'2017-08-08 01:00:00-07:00'
p1328
aS'2017-08-08 01:30:00-07:00'
p1329
aS'2017-08-08 02:00:00-07:00'
p1330
aS'2017-08-08 02:30:00-07:00'
p1331
aS'2017-08-08 03:00:00-07:00'
p1332
aS'2017-08-08 03:30:00-07:00'
p1333
aS'2017-08-08 04:00:00-07:00'
p1334
aS'2017-08-08 04:30:00-07:00'
p1335
aS'2017-08-08 05:00:00-07:00'
p1336
aS'2017-08-08 05:30:00-07:00'
p1337
aS'2017-08-08 06:00:00-07:00'
p1338
aS'2017-08-08 06:30:00-07:00'
p1339
aS'2017-08-08 07:00:00-07:00'
p1340
aS'2017-08-08 07:30:00-07:00'
p1341
aS'2017-08-08 08:00:00-07:00'
p1342
aS'2017-08-08 08:30:00-07:00'
p1343
aS'2017-08-08 09:00:00-07:00'
p1344
aS'2017-08-08 09:30:00-07:00'
p1345
aS'2017-08-08 10:00:00-07:00'
p1346
aS'2017-08-08 10:30:00-07:00'
p1347
aS'2017-08-08 11:00:00-07:00'
p1348
aS'2017-08-08 11:30:00-07:00'
p1349
aS'2017-08-08 12:00:00-07:00'
p1350
aS'2017-08-08 12:30:00-07:00'
p1351
aS'2017-08-08 13:00:00-07:00'
p1352
aS'2017-08-08 13:30:00-07:00'
p1353
aS'2017-08-08 14:00:00-07:00'
p1354
aS'2017-08-08 14:30:00-07:00'
p1355
aS'2017-08-08 15:00:00-07:00'
p1356
aS'2017-08-08 15:30:00-07:00'
p1357
aS'2017-08-08 16:00:00-07:00'
p1358
aS'2017-08-08 16:30:00-07:00'
p1359
aS'2017-08-08 17:00:00-07:00'
p1360
aS'2017-08-08 17:30:00-07:00'
p1361
aS'2017-08-08 18:00:00-07:00'
p1362
aS'2017-08-08 18:30:00-07:00'
p1363
aS'2017-08-08 19:00:00-07:00'
p1364
aS'2017-08-08 19:30:00-07:00'
p1365
aS'2017-08-08 20:00:00-07:00'
p1366
aS'2017-08-08 20:30:00-07:00'
p1367
aS'2017-08-08 21:00:00-07:00'
p1368
aS'2017-08-08 21:30:00-07:00'
p1369
aS'2017-08-08 22:00:00-07:00'
p1370
aS'2017-08-08 22:30:00-07:00'
p1371
aS'2017-08-07 06:00:00-07:00'
p1372
aS'2017-08-07 06:30:00-07:00'
p1373
aS'2017-08-07 07:00:00-07:00'
p1374
aS'2017-08-07 07:30:00-07:00'
p1375
aS'2017-08-07 08:00:00-07:00'
p1376
aS'2017-08-07 08:30:00-07:00'
p1377
aS'2017-08-07 09:00:00-07:00'
p1378
aS'2017-08-07 09:30:00-07:00'
p1379
aS'2017-08-07 10:00:00-07:00'
p1380
aS'2017-08-07 10:30:00-07:00'
p1381
aS'2017-08-07 11:00:00-07:00'
p1382
aS'2017-08-07 11:30:00-07:00'
p1383
aS'2017-08-07 12:00:00-07:00'
p1384
aS'2017-08-07 12:30:00-07:00'
p1385
aS'2017-08-07 13:00:00-07:00'
p1386
aS'2017-08-07 13:30:00-07:00'
p1387
aS'2017-08-07 14:00:00-07:00'
p1388
aS'2017-08-07 14:30:00-07:00'
p1389
aS'2017-08-07 15:00:00-07:00'
p1390
aS'2017-08-07 15:30:00-07:00'
p1391
aS'2017-08-07 16:00:00-07:00'
p1392
aS'2017-08-07 16:30:00-07:00'
p1393
aS'2017-08-07 17:00:00-07:00'
p1394
aS'2017-08-07 17:30:00-07:00'
p1395
aS'2017-08-07 18:00:00-07:00'
p1396
aS'2017-08-07 18:30:00-07:00'
p1397
aS'2017-08-07 19:00:00-07:00'
p1398
aS'2017-08-07 19:30:00-07:00'
p1399
aS'2017-08-07 20:00:00-07:00'
p1400
aS'2017-08-07 20:30:00-07:00'
p1401
aS'2017-08-07 21:00:00-07:00'
p1402
aS'2017-08-07 21:30:00-07:00'
p1403
aS'2017-08-07 22:00:00-07:00'
p1404
aS'2017-08-07 22:30:00-07:00'
p1405
aS'2017-08-07 23:00:00-07:00'
p1406
aS'2017-08-07 23:30:00-07:00'
p1407
aS'2017-08-08 00:00:00-07:00'
p1408
aS'2017-08-08 00:30:00-07:00'
p1409
aS'2017-08-08 01:00:00-07:00'
p1410
aS'2017-08-08 01:30:00-07:00'
p1411
aS'2017-08-08 02:00:00-07:00'
p1412
aS'2017-08-08 02:30:00-07:00'
p1413
aS'2017-08-08 03:00:00-07:00'
p1414
aS'2017-08-08 03:30:00-07:00'
p1415
aS'2017-08-08 04:00:00-07:00'
p1416
aS'2017-08-08 04:30:00-07:00'
p1417
aS'2017-08-08 05:00:00-07:00'
p1418
aS'2017-08-08 05:30:00-07:00'
p1419
aS'2017-08-08 06:00:00-07:00'
p1420
aS'2017-08-08 06:30:00-07:00'
p1421
aS'2017-08-08 07:00:00-07:00'
p1422
aS'2017-08-08 07:30:00-07:00'
p1423
aS'2017-08-08 08:00:00-07:00'
p1424
aS'2017-08-08 08:30:00-07:00'
p1425
aS'2017-08-08 09:00:00-07:00'
p1426
aS'2017-08-08 09:30:00-07:00'
p1427
aS'2017-08-08 10:00:00-07:00'
p1428
aS'2017-08-07 00:00:00-07:00'
p1429
aS'2017-08-07 00:30:00-07:00'
p1430
aS'2017-08-07 01:00:00-07:00'
p1431
aS'2017-08-07 01:30:00-07:00'
p1432
aS'2017-08-07 02:00:00-07:00'
p1433
aS'2017-08-07 02:30:00-07:00'
p1434
aS'2017-08-07 03:00:00-07:00'
p1435
aS'2017-08-07 03:30:00-07:00'
p1436
aS'2017-08-07 04:00:00-07:00'
p1437
aS'2017-08-07 04:30:00-07:00'
p1438
aS'2017-08-07 05:00:00-07:00'
p1439
aS'2017-08-07 05:30:00-07:00'
p1440
aS'2017-08-07 06:00:00-07:00'
p1441
aS'2017-08-07 06:30:00-07:00'
p1442
aS'2017-08-07 07:00:00-07:00'
p1443
aS'2017-08-07 07:30:00-07:00'
p1444
aS'2017-08-07 08:00:00-07:00'
p1445
aS'2017-08-07 08:30:00-07:00'
p1446
aS'2017-08-07 09:00:00-07:00'
p1447
aS'2017-08-07 09:30:00-07:00'
p1448
aS'2017-08-07 10:00:00-07:00'
p1449
aS'2017-08-07 10:30:00-07:00'
p1450
aS'2017-08-07 11:00:00-07:00'
p1451
aS'2017-08-07 11:30:00-07:00'
p1452
aS'2017-08-07 12:00:00-07:00'
p1453
aS'2017-08-07 12:30:00-07:00'
p1454
aS'2017-08-07 13:00:00-07:00'
p1455
aS'2017-08-07 13:30:00-07:00'
p1456
aS'2017-08-07 14:00:00-07:00'
p1457
aS'2017-08-07 14:30:00-07:00'
p1458
aS'2017-08-07 15:00:00-07:00'
p1459
aS'2017-08-07 15:30:00-07:00'
p1460
aS'2017-08-07 16:00:00-07:00'
p1461
aS'2017-08-07 16:30:00-07:00'
p1462
aS'2017-08-07 17:00:00-07:00'
p1463
aS'2017-08-07 17:30:00-07:00'
p1464
aS'2017-08-07 18:00:00-07:00'
p1465
aS'2017-08-07 18:30:00-07:00'
p1466
aS'2017-08-07 19:00:00-07:00'
p1467
aS'2017-08-07 19:30:00-07:00'
p1468
aS'2017-08-07 20:00:00-07:00'
p1469
aS'2017-08-07 20:30:00-07:00'
p1470
aS'2017-08-07 21:00:00-07:00'
p1471
aS'2017-08-07 21:30:00-07:00'
p1472
aS'2017-08-07 22:00:00-07:00'
p1473
aS'2017-08-07 22:30:00-07:00'
p1474
aS'2017-08-07 23:00:00-07:00'
p1475
aS'2017-08-07 23:30:00-07:00'
p1476
aS'2017-08-08 00:00:00-07:00'
p1477
aS'2017-08-08 00:30:00-07:00'
p1478
aS'2017-08-08 01:00:00-07:00'
p1479
aS'2017-08-08 01:30:00-07:00'
p1480
aS'2017-08-08 02:00:00-07:00'
p1481
aS'2017-08-08 02:30:00-07:00'
p1482
aS'2017-08-08 03:00:00-07:00'
p1483
aS'2017-08-08 03:30:00-07:00'
p1484
aS'2017-08-08 04:00:00-07:00'
p1485
aS'2017-08-08 04:30:00-07:00'
p1486
aS'2017-08-08 05:00:00-07:00'
p1487
aS'2017-08-08 05:30:00-07:00'
p1488
aS'2017-08-08 06:00:00-07:00'
p1489
aS'2017-08-08 06:30:00-07:00'
p1490
aS'2017-08-08 07:00:00-07:00'
p1491
aS'2017-08-08 07:30:00-07:00'
p1492
aS'2017-08-08 08:00:00-07:00'
p1493
aS'2017-08-08 08:30:00-07:00'
p1494
aS'2017-08-08 09:00:00-07:00'
p1495
aS'2017-08-08 09:30:00-07:00'
p1496
aS'2017-08-08 10:00:00-07:00'
p1497
aS'2017-08-08 10:30:00-07:00'
p1498
aS'2017-08-08 11:00:00-07:00'
p1499
aS'2017-08-08 11:30:00-07:00'
p1500
aS'2017-08-08 12:00:00-07:00'
p1501
aS'2017-08-08 12:30:00-07:00'
p1502
aS'2017-08-08 13:00:00-07:00'
p1503
aS'2017-08-08 13:30:00-07:00'
p1504
aS'2017-08-08 14:00:00-07:00'
p1505
aS'2017-08-08 14:30:00-07:00'
p1506
aS'2017-08-08 15:00:00-07:00'
p1507
aS'2017-08-08 15:30:00-07:00'
p1508
aS'2017-08-08 16:00:00-07:00'
p1509
aS'2017-08-08 16:30:00-07:00'
p1510
aS'2017-08-08 17:00:00-07:00'
p1511
aS'2017-08-08 17:30:00-07:00'
p1512
aS'2017-08-08 18:00:00-07:00'
p1513
aS'2017-08-08 18:30:00-07:00'
p1514
aS'2017-08-08 19:00:00-07:00'
p1515
aS'2017-08-08 19:30:00-07:00'
p1516
aS'2017-08-08 20:00:00-07:00'
p1517
aS'2017-08-08 20:30:00-07:00'
p1518
aS'2017-08-08 21:00:00-07:00'
p1519
aS'2017-08-08 21:30:00-07:00'
p1520
aS'2017-08-08 22:00:00-07:00'
p1521
aS'2017-08-08 22:30:00-07:00'
p1522
aS'2017-08-08 23:00:00-07:00'
p1523
aS'2017-08-07 00:30:00-07:00'
p1524
aS'2017-08-07 01:00:00-07:00'
p1525
aS'2017-08-07 01:30:00-07:00'
p1526
aS'2017-08-07 02:00:00-07:00'
p1527
aS'2017-08-07 02:30:00-07:00'
p1528
aS'2017-08-07 03:00:00-07:00'
p1529
aS'2017-08-07 03:30:00-07:00'
p1530
aS'2017-08-07 04:00:00-07:00'
p1531
aS'2017-08-07 04:30:00-07:00'
p1532
aS'2017-08-07 05:00:00-07:00'
p1533
aS'2017-08-07 05:30:00-07:00'
p1534
aS'2017-08-07 06:00:00-07:00'
p1535
aS'2017-08-07 06:30:00-07:00'
p1536
aS'2017-08-07 07:00:00-07:00'
p1537
aS'2017-08-07 07:30:00-07:00'
p1538
aS'2017-08-07 08:00:00-07:00'
p1539
aS'2017-08-07 08:30:00-07:00'
p1540
aS'2017-08-07 09:00:00-07:00'
p1541
aS'2017-08-07 09:30:00-07:00'
p1542
aS'2017-08-07 10:00:00-07:00'
p1543
aS'2017-08-07 10:30:00-07:00'
p1544
aS'2017-08-07 11:00:00-07:00'
p1545
aS'2017-08-07 11:30:00-07:00'
p1546
aS'2017-08-07 12:00:00-07:00'
p1547
aS'2017-08-07 12:30:00-07:00'
p1548
aS'2017-08-07 13:00:00-07:00'
p1549
aS'2017-08-07 13:30:00-07:00'
p1550
aS'2017-08-07 14:00:00-07:00'
p1551
aS'2017-08-07 14:30:00-07:00'
p1552
aS'2017-08-07 15:00:00-07:00'
p1553
aS'2017-08-07 15:30:00-07:00'
p1554
aS'2017-08-07 16:00:00-07:00'
p1555
aS'2017-08-07 16:30:00-07:00'
p1556
aS'2017-08-07 17:00:00-07:00'
p1557
aS'2017-08-07 17:30:00-07:00'
p1558
aS'2017-08-07 18:00:00-07:00'
p1559
aS'2017-08-07 18:30:00-07:00'
p1560
aS'2017-08-07 19:00:00-07:00'
p1561
aS'2017-08-07 19:30:00-07:00'
p1562
aS'2017-08-07 20:00:00-07:00'
p1563
aS'2017-08-07 20:30:00-07:00'
p1564
aS'2017-08-07 21:00:00-07:00'
p1565
aS'2017-08-07 21:30:00-07:00'
p1566
aS'2017-08-07 22:00:00-07:00'
p1567
aS'2017-08-07 22:30:00-07:00'
p1568
aS'2017-08-07 23:00:00-07:00'
p1569
aS'2017-08-07 23:30:00-07:00'
p1570
aS'2017-08-08 00:00:00-07:00'
p1571
aS'2017-08-08 00:30:00-07:00'
p1572
aS'2017-08-08 01:00:00-07:00'
p1573
aS'2017-08-08 01:30:00-07:00'
p1574
aS'2017-08-08 02:00:00-07:00'
p1575
aS'2017-08-08 02:30:00-07:00'
p1576
aS'2017-08-08 03:00:00-07:00'
p1577
aS'2017-08-08 03:30:00-07:00'
p1578
aS'2017-08-08 04:00:00-07:00'
p1579
aS'2017-08-08 04:30:00-07:00'
p1580
aS'2017-08-08 05:00:00-07:00'
p1581
aS'2017-08-08 05:30:00-07:00'
p1582
aS'2017-08-08 06:00:00-07:00'
p1583
aS'2017-08-08 06:30:00-07:00'
p1584
aS'2017-08-08 07:00:00-07:00'
p1585
aS'2017-08-08 07:30:00-07:00'
p1586
aS'2017-08-08 08:00:00-07:00'
p1587
aS'2017-08-08 08:30:00-07:00'
p1588
aS'2017-08-08 09:00:00-07:00'
p1589
aS'2017-08-08 09:30:00-07:00'
p1590
aS'2017-08-08 10:00:00-07:00'
p1591
aS'2017-08-08 10:30:00-07:00'
p1592
aS'2017-08-08 11:00:00-07:00'
p1593
aS'2017-08-08 11:30:00-07:00'
p1594
aS'2017-08-08 12:00:00-07:00'
p1595
aS'2017-08-08 12:30:00-07:00'
p1596
aS'2017-08-08 13:00:00-07:00'
p1597
aS'2017-08-08 13:30:00-07:00'
p1598
aS'2017-08-08 14:00:00-07:00'
p1599
aS'2017-08-08 14:30:00-07:00'
p1600
aS'2017-08-08 15:00:00-07:00'
p1601
aS'2017-08-08 15:30:00-07:00'
p1602
aS'2017-08-08 16:00:00-07:00'
p1603
aS'2017-08-08 16:30:00-07:00'
p1604
aS'2017-08-08 17:00:00-07:00'
p1605
aS'2017-08-08 17:30:00-07:00'
p1606
aS'2017-08-08 18:00:00-07:00'
p1607
aS'2017-08-08 18:30:00-07:00'
p1608
aS'2017-08-08 19:00:00-07:00'
p1609
aS'2017-08-08 19:30:00-07:00'
p1610
aS'2017-08-08 20:00:00-07:00'
p1611
aS'2017-08-08 20:30:00-07:00'
p1612
aS'2017-08-08 21:00:00-07:00'
p1613
aS'2017-08-08 21:30:00-07:00'
p1614
aS'2017-08-08 22:00:00-07:00'
p1615
aS'2017-08-08 22:30:00-07:00'
p1616
aS'2017-08-08 23:00:00-07:00'
p1617
aS'2017-08-08 23:30:00-07:00'
p1618
a.